Component: ARM Compiler 5.06 update 1 (build 61) Tool: armlink [4d35a8]

==============================================================================

Section Cross References

    startup_hc32f460.o(RESET) refers to startup_hc32f460.o(STACK) for __initial_sp
    startup_hc32f460.o(RESET) refers to startup_hc32f460.o(.text) for Reset_Handler
    startup_hc32f460.o(RESET) refers to hc32_ll_interrupts.o(i.IRQ000_Handler) for IRQ000_Handler
    startup_hc32f460.o(RESET) refers to hc32_ll_interrupts.o(i.IRQ001_Handler) for IRQ001_Handler
    startup_hc32f460.o(RESET) refers to hc32_ll_interrupts.o(i.IRQ002_Handler) for IRQ002_Handler
    startup_hc32f460.o(RESET) refers to hc32_ll_interrupts.o(i.IRQ003_Handler) for IRQ003_Handler
    startup_hc32f460.o(RESET) refers to hc32_ll_interrupts.o(i.IRQ004_Handler) for IRQ004_Handler
    startup_hc32f460.o(RESET) refers to hc32_ll_interrupts.o(i.IRQ005_Handler) for IRQ005_Handler
    startup_hc32f460.o(RESET) refers to hc32_ll_interrupts.o(i.IRQ006_Handler) for IRQ006_Handler
    startup_hc32f460.o(RESET) refers to hc32_ll_interrupts.o(i.IRQ007_Handler) for IRQ007_Handler
    startup_hc32f460.o(RESET) refers to hc32_ll_interrupts.o(i.IRQ008_Handler) for IRQ008_Handler
    startup_hc32f460.o(RESET) refers to hc32_ll_interrupts.o(i.IRQ009_Handler) for IRQ009_Handler
    startup_hc32f460.o(RESET) refers to hc32_ll_interrupts.o(i.IRQ010_Handler) for IRQ010_Handler
    startup_hc32f460.o(RESET) refers to hc32_ll_interrupts.o(i.IRQ011_Handler) for IRQ011_Handler
    startup_hc32f460.o(RESET) refers to hc32_ll_interrupts.o(i.IRQ012_Handler) for IRQ012_Handler
    startup_hc32f460.o(RESET) refers to hc32_ll_interrupts.o(i.IRQ013_Handler) for IRQ013_Handler
    startup_hc32f460.o(RESET) refers to hc32_ll_interrupts.o(i.IRQ014_Handler) for IRQ014_Handler
    startup_hc32f460.o(RESET) refers to hc32_ll_interrupts.o(i.IRQ015_Handler) for IRQ015_Handler
    startup_hc32f460.o(RESET) refers to hc32_ll_interrupts.o(i.IRQ016_Handler) for IRQ016_Handler
    startup_hc32f460.o(RESET) refers to hc32_ll_interrupts.o(i.IRQ017_Handler) for IRQ017_Handler
    startup_hc32f460.o(RESET) refers to hc32_ll_interrupts.o(i.IRQ018_Handler) for IRQ018_Handler
    startup_hc32f460.o(RESET) refers to hc32_ll_interrupts.o(i.IRQ019_Handler) for IRQ019_Handler
    startup_hc32f460.o(RESET) refers to hc32_ll_interrupts.o(i.IRQ020_Handler) for IRQ020_Handler
    startup_hc32f460.o(RESET) refers to hc32_ll_interrupts.o(i.IRQ021_Handler) for IRQ021_Handler
    startup_hc32f460.o(RESET) refers to hc32_ll_interrupts.o(i.IRQ022_Handler) for IRQ022_Handler
    startup_hc32f460.o(RESET) refers to hc32_ll_interrupts.o(i.IRQ023_Handler) for IRQ023_Handler
    startup_hc32f460.o(RESET) refers to hc32_ll_interrupts.o(i.IRQ024_Handler) for IRQ024_Handler
    startup_hc32f460.o(RESET) refers to hc32_ll_interrupts.o(i.IRQ025_Handler) for IRQ025_Handler
    startup_hc32f460.o(RESET) refers to hc32_ll_interrupts.o(i.IRQ026_Handler) for IRQ026_Handler
    startup_hc32f460.o(RESET) refers to hc32_ll_interrupts.o(i.IRQ027_Handler) for IRQ027_Handler
    startup_hc32f460.o(RESET) refers to hc32_ll_interrupts.o(i.IRQ028_Handler) for IRQ028_Handler
    startup_hc32f460.o(RESET) refers to hc32_ll_interrupts.o(i.IRQ029_Handler) for IRQ029_Handler
    startup_hc32f460.o(RESET) refers to hc32_ll_interrupts.o(i.IRQ030_Handler) for IRQ030_Handler
    startup_hc32f460.o(RESET) refers to hc32_ll_interrupts.o(i.IRQ031_Handler) for IRQ031_Handler
    startup_hc32f460.o(RESET) refers to hc32_ll_interrupts.o(i.IRQ032_Handler) for IRQ032_Handler
    startup_hc32f460.o(RESET) refers to hc32_ll_interrupts.o(i.IRQ033_Handler) for IRQ033_Handler
    startup_hc32f460.o(RESET) refers to hc32_ll_interrupts.o(i.IRQ034_Handler) for IRQ034_Handler
    startup_hc32f460.o(RESET) refers to hc32_ll_interrupts.o(i.IRQ035_Handler) for IRQ035_Handler
    startup_hc32f460.o(RESET) refers to hc32_ll_interrupts.o(i.IRQ036_Handler) for IRQ036_Handler
    startup_hc32f460.o(RESET) refers to hc32_ll_interrupts.o(i.IRQ037_Handler) for IRQ037_Handler
    startup_hc32f460.o(RESET) refers to hc32_ll_interrupts.o(i.IRQ038_Handler) for IRQ038_Handler
    startup_hc32f460.o(RESET) refers to hc32_ll_interrupts.o(i.IRQ039_Handler) for IRQ039_Handler
    startup_hc32f460.o(RESET) refers to hc32_ll_interrupts.o(i.IRQ040_Handler) for IRQ040_Handler
    startup_hc32f460.o(RESET) refers to hc32_ll_interrupts.o(i.IRQ041_Handler) for IRQ041_Handler
    startup_hc32f460.o(RESET) refers to hc32_ll_interrupts.o(i.IRQ042_Handler) for IRQ042_Handler
    startup_hc32f460.o(RESET) refers to hc32_ll_interrupts.o(i.IRQ043_Handler) for IRQ043_Handler
    startup_hc32f460.o(RESET) refers to hc32_ll_interrupts.o(i.IRQ044_Handler) for IRQ044_Handler
    startup_hc32f460.o(RESET) refers to hc32_ll_interrupts.o(i.IRQ045_Handler) for IRQ045_Handler
    startup_hc32f460.o(RESET) refers to hc32_ll_interrupts.o(i.IRQ046_Handler) for IRQ046_Handler
    startup_hc32f460.o(RESET) refers to hc32_ll_interrupts.o(i.IRQ047_Handler) for IRQ047_Handler
    startup_hc32f460.o(RESET) refers to hc32_ll_interrupts.o(i.IRQ048_Handler) for IRQ048_Handler
    startup_hc32f460.o(RESET) refers to hc32_ll_interrupts.o(i.IRQ049_Handler) for IRQ049_Handler
    startup_hc32f460.o(RESET) refers to hc32_ll_interrupts.o(i.IRQ050_Handler) for IRQ050_Handler
    startup_hc32f460.o(RESET) refers to hc32_ll_interrupts.o(i.IRQ051_Handler) for IRQ051_Handler
    startup_hc32f460.o(RESET) refers to hc32_ll_interrupts.o(i.IRQ052_Handler) for IRQ052_Handler
    startup_hc32f460.o(RESET) refers to hc32_ll_interrupts.o(i.IRQ053_Handler) for IRQ053_Handler
    startup_hc32f460.o(RESET) refers to hc32_ll_interrupts.o(i.IRQ054_Handler) for IRQ054_Handler
    startup_hc32f460.o(RESET) refers to hc32_ll_interrupts.o(i.IRQ055_Handler) for IRQ055_Handler
    startup_hc32f460.o(RESET) refers to hc32_ll_interrupts.o(i.IRQ056_Handler) for IRQ056_Handler
    startup_hc32f460.o(RESET) refers to hc32_ll_interrupts.o(i.IRQ057_Handler) for IRQ057_Handler
    startup_hc32f460.o(RESET) refers to hc32_ll_interrupts.o(i.IRQ058_Handler) for IRQ058_Handler
    startup_hc32f460.o(RESET) refers to hc32_ll_interrupts.o(i.IRQ059_Handler) for IRQ059_Handler
    startup_hc32f460.o(RESET) refers to hc32_ll_interrupts.o(i.IRQ060_Handler) for IRQ060_Handler
    startup_hc32f460.o(RESET) refers to hc32_ll_interrupts.o(i.IRQ061_Handler) for IRQ061_Handler
    startup_hc32f460.o(RESET) refers to hc32_ll_interrupts.o(i.IRQ062_Handler) for IRQ062_Handler
    startup_hc32f460.o(RESET) refers to hc32_ll_interrupts.o(i.IRQ063_Handler) for IRQ063_Handler
    startup_hc32f460.o(RESET) refers to hc32_ll_interrupts.o(i.IRQ064_Handler) for IRQ064_Handler
    startup_hc32f460.o(RESET) refers to hc32_ll_interrupts.o(i.IRQ065_Handler) for IRQ065_Handler
    startup_hc32f460.o(RESET) refers to hc32_ll_interrupts.o(i.IRQ066_Handler) for IRQ066_Handler
    startup_hc32f460.o(RESET) refers to hc32_ll_interrupts.o(i.IRQ067_Handler) for IRQ067_Handler
    startup_hc32f460.o(RESET) refers to hc32_ll_interrupts.o(i.IRQ068_Handler) for IRQ068_Handler
    startup_hc32f460.o(RESET) refers to hc32_ll_interrupts.o(i.IRQ069_Handler) for IRQ069_Handler
    startup_hc32f460.o(RESET) refers to hc32_ll_interrupts.o(i.IRQ070_Handler) for IRQ070_Handler
    startup_hc32f460.o(RESET) refers to hc32_ll_interrupts.o(i.IRQ071_Handler) for IRQ071_Handler
    startup_hc32f460.o(RESET) refers to hc32_ll_interrupts.o(i.IRQ072_Handler) for IRQ072_Handler
    startup_hc32f460.o(RESET) refers to hc32_ll_interrupts.o(i.IRQ073_Handler) for IRQ073_Handler
    startup_hc32f460.o(RESET) refers to hc32_ll_interrupts.o(i.IRQ074_Handler) for IRQ074_Handler
    startup_hc32f460.o(RESET) refers to hc32_ll_interrupts.o(i.IRQ075_Handler) for IRQ075_Handler
    startup_hc32f460.o(RESET) refers to hc32_ll_interrupts.o(i.IRQ076_Handler) for IRQ076_Handler
    startup_hc32f460.o(RESET) refers to hc32_ll_interrupts.o(i.IRQ077_Handler) for IRQ077_Handler
    startup_hc32f460.o(RESET) refers to hc32_ll_interrupts.o(i.IRQ078_Handler) for IRQ078_Handler
    startup_hc32f460.o(RESET) refers to hc32_ll_interrupts.o(i.IRQ079_Handler) for IRQ079_Handler
    startup_hc32f460.o(RESET) refers to hc32_ll_interrupts.o(i.IRQ080_Handler) for IRQ080_Handler
    startup_hc32f460.o(RESET) refers to hc32_ll_interrupts.o(i.IRQ081_Handler) for IRQ081_Handler
    startup_hc32f460.o(RESET) refers to hc32_ll_interrupts.o(i.IRQ082_Handler) for IRQ082_Handler
    startup_hc32f460.o(RESET) refers to hc32_ll_interrupts.o(i.IRQ083_Handler) for IRQ083_Handler
    startup_hc32f460.o(RESET) refers to hc32_ll_interrupts.o(i.IRQ084_Handler) for IRQ084_Handler
    startup_hc32f460.o(RESET) refers to hc32_ll_interrupts.o(i.IRQ085_Handler) for IRQ085_Handler
    startup_hc32f460.o(RESET) refers to hc32_ll_interrupts.o(i.IRQ086_Handler) for IRQ086_Handler
    startup_hc32f460.o(RESET) refers to hc32_ll_interrupts.o(i.IRQ087_Handler) for IRQ087_Handler
    startup_hc32f460.o(RESET) refers to hc32_ll_interrupts.o(i.IRQ088_Handler) for IRQ088_Handler
    startup_hc32f460.o(RESET) refers to hc32_ll_interrupts.o(i.IRQ089_Handler) for IRQ089_Handler
    startup_hc32f460.o(RESET) refers to hc32_ll_interrupts.o(i.IRQ090_Handler) for IRQ090_Handler
    startup_hc32f460.o(RESET) refers to hc32_ll_interrupts.o(i.IRQ091_Handler) for IRQ091_Handler
    startup_hc32f460.o(RESET) refers to hc32_ll_interrupts.o(i.IRQ092_Handler) for IRQ092_Handler
    startup_hc32f460.o(RESET) refers to hc32_ll_interrupts.o(i.IRQ093_Handler) for IRQ093_Handler
    startup_hc32f460.o(RESET) refers to hc32_ll_interrupts.o(i.IRQ094_Handler) for IRQ094_Handler
    startup_hc32f460.o(RESET) refers to hc32_ll_interrupts.o(i.IRQ095_Handler) for IRQ095_Handler
    startup_hc32f460.o(RESET) refers to hc32_ll_interrupts.o(i.IRQ096_Handler) for IRQ096_Handler
    startup_hc32f460.o(RESET) refers to hc32_ll_interrupts.o(i.IRQ097_Handler) for IRQ097_Handler
    startup_hc32f460.o(RESET) refers to hc32_ll_interrupts.o(i.IRQ098_Handler) for IRQ098_Handler
    startup_hc32f460.o(RESET) refers to hc32_ll_interrupts.o(i.IRQ099_Handler) for IRQ099_Handler
    startup_hc32f460.o(RESET) refers to hc32_ll_interrupts.o(i.IRQ100_Handler) for IRQ100_Handler
    startup_hc32f460.o(RESET) refers to hc32_ll_interrupts.o(i.IRQ101_Handler) for IRQ101_Handler
    startup_hc32f460.o(RESET) refers to hc32_ll_interrupts.o(i.IRQ102_Handler) for IRQ102_Handler
    startup_hc32f460.o(RESET) refers to hc32_ll_interrupts.o(i.IRQ103_Handler) for IRQ103_Handler
    startup_hc32f460.o(RESET) refers to hc32_ll_interrupts.o(i.IRQ104_Handler) for IRQ104_Handler
    startup_hc32f460.o(RESET) refers to hc32_ll_interrupts.o(i.IRQ105_Handler) for IRQ105_Handler
    startup_hc32f460.o(RESET) refers to hc32_ll_interrupts.o(i.IRQ106_Handler) for IRQ106_Handler
    startup_hc32f460.o(RESET) refers to hc32_ll_interrupts.o(i.IRQ107_Handler) for IRQ107_Handler
    startup_hc32f460.o(RESET) refers to hc32_ll_interrupts.o(i.IRQ108_Handler) for IRQ108_Handler
    startup_hc32f460.o(RESET) refers to hc32_ll_interrupts.o(i.IRQ109_Handler) for IRQ109_Handler
    startup_hc32f460.o(RESET) refers to hc32_ll_interrupts.o(i.IRQ110_Handler) for IRQ110_Handler
    startup_hc32f460.o(RESET) refers to hc32_ll_interrupts.o(i.IRQ111_Handler) for IRQ111_Handler
    startup_hc32f460.o(RESET) refers to hc32_ll_interrupts.o(i.IRQ112_Handler) for IRQ112_Handler
    startup_hc32f460.o(RESET) refers to hc32_ll_interrupts.o(i.IRQ113_Handler) for IRQ113_Handler
    startup_hc32f460.o(RESET) refers to hc32_ll_interrupts.o(i.IRQ114_Handler) for IRQ114_Handler
    startup_hc32f460.o(RESET) refers to hc32_ll_interrupts.o(i.IRQ115_Handler) for IRQ115_Handler
    startup_hc32f460.o(RESET) refers to hc32_ll_interrupts.o(i.IRQ116_Handler) for IRQ116_Handler
    startup_hc32f460.o(RESET) refers to hc32_ll_interrupts.o(i.IRQ117_Handler) for IRQ117_Handler
    startup_hc32f460.o(RESET) refers to hc32_ll_interrupts.o(i.IRQ118_Handler) for IRQ118_Handler
    startup_hc32f460.o(RESET) refers to hc32_ll_interrupts.o(i.IRQ119_Handler) for IRQ119_Handler
    startup_hc32f460.o(RESET) refers to hc32_ll_interrupts.o(i.IRQ120_Handler) for IRQ120_Handler
    startup_hc32f460.o(RESET) refers to hc32_ll_interrupts.o(i.IRQ121_Handler) for IRQ121_Handler
    startup_hc32f460.o(RESET) refers to hc32_ll_interrupts.o(i.IRQ122_Handler) for IRQ122_Handler
    startup_hc32f460.o(RESET) refers to hc32_ll_interrupts.o(i.IRQ123_Handler) for IRQ123_Handler
    startup_hc32f460.o(RESET) refers to hc32_ll_interrupts.o(i.IRQ124_Handler) for IRQ124_Handler
    startup_hc32f460.o(RESET) refers to hc32_ll_interrupts.o(i.IRQ125_Handler) for IRQ125_Handler
    startup_hc32f460.o(RESET) refers to hc32_ll_interrupts.o(i.IRQ126_Handler) for IRQ126_Handler
    startup_hc32f460.o(RESET) refers to hc32_ll_interrupts.o(i.IRQ127_Handler) for IRQ127_Handler
    startup_hc32f460.o(RESET) refers to hc32f460_ll_interrupts_share.o(i.IRQ128_Handler) for IRQ128_Handler
    startup_hc32f460.o(RESET) refers to hc32f460_ll_interrupts_share.o(i.IRQ129_Handler) for IRQ129_Handler
    startup_hc32f460.o(RESET) refers to hc32f460_ll_interrupts_share.o(i.IRQ130_Handler) for IRQ130_Handler
    startup_hc32f460.o(RESET) refers to hc32f460_ll_interrupts_share.o(i.IRQ131_Handler) for IRQ131_Handler
    startup_hc32f460.o(RESET) refers to hc32f460_ll_interrupts_share.o(i.IRQ132_Handler) for IRQ132_Handler
    startup_hc32f460.o(RESET) refers to hc32f460_ll_interrupts_share.o(i.IRQ136_Handler) for IRQ136_Handler
    startup_hc32f460.o(RESET) refers to hc32f460_ll_interrupts_share.o(i.IRQ137_Handler) for IRQ137_Handler
    startup_hc32f460.o(RESET) refers to hc32f460_ll_interrupts_share.o(i.IRQ138_Handler) for IRQ138_Handler
    startup_hc32f460.o(RESET) refers to hc32f460_ll_interrupts_share.o(i.IRQ139_Handler) for IRQ139_Handler
    startup_hc32f460.o(RESET) refers to hc32f460_ll_interrupts_share.o(i.IRQ140_Handler) for IRQ140_Handler
    startup_hc32f460.o(RESET) refers to hc32f460_ll_interrupts_share.o(i.IRQ141_Handler) for IRQ141_Handler
    startup_hc32f460.o(RESET) refers to hc32f460_ll_interrupts_share.o(i.IRQ142_Handler) for IRQ142_Handler
    startup_hc32f460.o(RESET) refers to hc32f460_ll_interrupts_share.o(i.IRQ143_Handler) for IRQ143_Handler
    startup_hc32f460.o(.text) refers to system_hc32f460.o(i.SystemInit) for SystemInit
    startup_hc32f460.o(.text) refers to entry.o(.ARM.Collect$$$$00000000) for __main
    system_hc32f460.o(i.SystemCoreClockUpdate) refers to system_hc32f460.o(.bss.noinit) for HRC_VALUE
    system_hc32f460.o(i.SystemInit) refers to system_hc32f460.o(i.SystemCoreClockUpdate) for SystemCoreClockUpdate
    main.o(i.main) refers to hc32_ll.o(i.LL_PERIPH_WE) for LL_PERIPH_WE
    main.o(i.main) refers to tim.o(i.App_ClkCfg) for App_ClkCfg
    main.o(i.main) refers to control_step.o(i.App_PortCfg) for App_PortCfg
    main.o(i.main) refers to tim.o(i.App_IntCfg) for App_IntCfg
    main.o(i.main) refers to tim.o(i.App_TimerACfg) for App_TimerACfg
    main.o(i.main) refers to mp6602.o(i.App_SPIxCfg) for App_SPIxCfg
    main.o(i.main) refers to hc32_ll.o(i.LL_PERIPH_WP) for LL_PERIPH_WP
    main.o(i.main) refers to control_step.o(i.Stepper_start) for Stepper_start
    main.o(i.main) refers to control_step.o(i.Stepper_Move_S) for Stepper_Move_S
    main.o(i.main) refers to control_step.o(.bss) for Stepper
    main.o(i.main) refers to tim.o(.data) for vn
    control_step.o(i.App_PortCfg) refers to hc32_ll_gpio.o(i.GPIO_StructInit) for GPIO_StructInit
    control_step.o(i.App_PortCfg) refers to hc32_ll_gpio.o(i.GPIO_Init) for GPIO_Init
    control_step.o(i.App_PortCfg) refers to hc32_ll_gpio.o(i.GPIO_SetFunc) for GPIO_SetFunc
    control_step.o(i.Calcspeed_e) refers to fflti.o(.text) for __aeabi_i2f
    control_step.o(i.Calcspeed_e) refers to fmul.o(.text) for __aeabi_fmul
    control_step.o(i.Calcspeed_e) refers to fdiv.o(.text) for __aeabi_fdiv
    control_step.o(i.Calcspeed_e) refers to fadd.o(.text) for __aeabi_fadd
    control_step.o(i.Calcspeed_e) refers to ffixi.o(.text) for __aeabi_f2iz
    control_step.o(i.Calcspeed_e) refers to expf.o(i.expf) for expf
    control_step.o(i.Calcspeed_e) refers to cfcmple.o(.text) for __aeabi_cfcmple
    control_step.o(i.Calcspeed_e) refers to control_step.o(.bss) for Speed
    control_step.o(i.Calcspeed_e) refers to control_step.o(.data) for ecode
    control_step.o(i.Calcspeed_s) refers to fflti.o(.text) for __aeabi_i2f
    control_step.o(i.Calcspeed_s) refers to fmul.o(.text) for __aeabi_fmul
    control_step.o(i.Calcspeed_s) refers to fdiv.o(.text) for __aeabi_fdiv
    control_step.o(i.Calcspeed_s) refers to ffixi.o(.text) for __aeabi_f2iz
    control_step.o(i.Calcspeed_s) refers to fadd.o(.text) for __aeabi_frsub
    control_step.o(i.Calcspeed_s) refers to f2d.o(.text) for __aeabi_f2d
    control_step.o(i.Calcspeed_s) refers to pow.o(i.pow) for pow
    control_step.o(i.Calcspeed_s) refers to d2f.o(.text) for __aeabi_d2f
    control_step.o(i.Calcspeed_s) refers to cfcmple.o(.text) for __aeabi_cfcmple
    control_step.o(i.Calcspeed_s) refers to control_step.o(.bss) for Speed
    control_step.o(i.Calcspeed_s) refers to control_step.o(.data) for ecode
    control_step.o(i.Speed_Decision_C) refers to control_step.o(.data) for cmd
    control_step.o(i.Speed_Decision_S) refers to fdiv.o(.text) for __aeabi_fdiv
    control_step.o(i.Speed_Decision_S) refers to ffixui.o(.text) for __aeabi_f2uiz
    control_step.o(i.Speed_Decision_S) refers to hc32_ll_tmra.o(i.TMRA_PWM_OutputCmd) for TMRA_PWM_OutputCmd
    control_step.o(i.Speed_Decision_S) refers to hc32_ll_tmra.o(i.TMRA_IntCmd) for TMRA_IntCmd
    control_step.o(i.Speed_Decision_S) refers to memseta.o(.text) for __aeabi_memclr4
    control_step.o(i.Speed_Decision_S) refers to hc32_ll_tmra.o(i.TMRA_GetCountValue) for TMRA_GetCountValue
    control_step.o(i.Speed_Decision_S) refers to hc32_ll_tmra.o(i.TMRA_SetCompareValue) for TMRA_SetCompareValue
    control_step.o(i.Speed_Decision_S) refers to control_step.o(.data) for i
    control_step.o(i.Speed_Decision_S) refers to control_step.o(.bss) for Stepper
    control_step.o(i.Stepper_Move_C) refers to fflti.o(.text) for __aeabi_i2f
    control_step.o(i.Stepper_Move_C) refers to fmul.o(.text) for __aeabi_fmul
    control_step.o(i.Stepper_Move_C) refers to fdiv.o(.text) for __aeabi_fdiv
    control_step.o(i.Stepper_Move_C) refers to ffixi.o(.text) for __aeabi_f2iz
    control_step.o(i.Stepper_Move_C) refers to hc32_ll_tmra.o(i.TMRA_SetPeriodValue) for TMRA_SetPeriodValue
    control_step.o(i.Stepper_Move_C) refers to hc32_ll_tmra.o(i.TMRA_SetCompareValue) for TMRA_SetCompareValue
    control_step.o(i.Stepper_Move_C) refers to f2d.o(.text) for __aeabi_f2d
    control_step.o(i.Stepper_Move_C) refers to dmul.o(.text) for __aeabi_dmul
    control_step.o(i.Stepper_Move_C) refers to dfixui.o(.text) for __aeabi_d2uiz
    control_step.o(i.Stepper_Move_C) refers to control_step.o(.data) for cmd
    control_step.o(i.Stepper_Move_S) refers to control_step.o(i.Calcspeed_e) for Calcspeed_e
    control_step.o(i.Stepper_Move_S) refers to hc32_ll_gpio.o(i.GPIO_ResetPins) for GPIO_ResetPins
    control_step.o(i.Stepper_Move_S) refers to hc32_ll_gpio.o(i.GPIO_SetPins) for GPIO_SetPins
    control_step.o(i.Stepper_Move_S) refers to fdiv.o(.text) for __aeabi_fdiv
    control_step.o(i.Stepper_Move_S) refers to ffixui.o(.text) for __aeabi_f2uiz
    control_step.o(i.Stepper_Move_S) refers to hc32_ll_tmra.o(i.TMRA_SetCountValue) for TMRA_SetCountValue
    control_step.o(i.Stepper_Move_S) refers to hc32_ll_tmra.o(i.TMRA_SetCompareValue) for TMRA_SetCompareValue
    control_step.o(i.Stepper_Move_S) refers to hc32_ll_tmra.o(i.TMRA_PWM_OutputCmd) for TMRA_PWM_OutputCmd
    control_step.o(i.Stepper_Move_S) refers to hc32_ll_tmra.o(i.TMRA_IntCmd) for TMRA_IntCmd
    control_step.o(i.Stepper_Move_S) refers to control_step.o(.bss) for Stepper
    control_step.o(i.Stepper_Move_S) refers to control_step.o(.data) for dir_
    control_step.o(i.Stepper_start) refers to hc32_ll_gpio.o(i.GPIO_SetPins) for GPIO_SetPins
    control_step.o(i.Stepper_stop) refers to hc32_ll_gpio.o(i.GPIO_ResetPins) for GPIO_ResetPins
    tim.o(i.App_ClkCfg) refers to hc32_ll_clk.o(i.CLK_SetClockDiv) for CLK_SetClockDiv
    tim.o(i.App_ClkCfg) refers to hc32_ll_sram.o(i.SRAM_SetWaitCycle) for SRAM_SetWaitCycle
    tim.o(i.App_ClkCfg) refers to hc32_ll_efm.o(i.EFM_SetWaitCycle) for EFM_SetWaitCycle
    tim.o(i.App_ClkCfg) refers to hc32_ll_clk.o(i.CLK_XtalStructInit) for CLK_XtalStructInit
    tim.o(i.App_ClkCfg) refers to hc32_ll_clk.o(i.CLK_XtalInit) for CLK_XtalInit
    tim.o(i.App_ClkCfg) refers to hc32_ll_clk.o(i.CLK_PLLStructInit) for CLK_PLLStructInit
    tim.o(i.App_ClkCfg) refers to hc32_ll_clk.o(i.CLK_PLLInit) for CLK_PLLInit
    tim.o(i.App_ClkCfg) refers to hc32_ll_gpio.o(i.GPIO_SetReadWaitCycle) for GPIO_SetReadWaitCycle
    tim.o(i.App_ClkCfg) refers to hc32_ll_pwc.o(i.PWC_HighSpeedToHighPerformance) for PWC_HighSpeedToHighPerformance
    tim.o(i.App_ClkCfg) refers to hc32_ll_clk.o(i.CLK_SetSysClockSrc) for CLK_SetSysClockSrc
    tim.o(i.App_IntCfg) refers to hc32_ll_interrupts.o(i.INTC_IrqSignIn) for INTC_IrqSignIn
    tim.o(i.App_IntCfg) refers to tim.o(i.__NVIC_ClearPendingIRQ) for __NVIC_ClearPendingIRQ
    tim.o(i.App_IntCfg) refers to tim.o(i.__NVIC_SetPriority) for __NVIC_SetPriority
    tim.o(i.App_IntCfg) refers to tim.o(i.__NVIC_EnableIRQ) for __NVIC_EnableIRQ
    tim.o(i.App_IntCfg) refers to tim.o(i.INT_SRC_TMRA_1_OVF_IrqCallback) for INT_SRC_TMRA_1_OVF_IrqCallback
    tim.o(i.App_IntCfg) refers to tim.o(i.INT_SRC_TMRA_3_CMP_IrqCallback) for INT_SRC_TMRA_3_CMP_IrqCallback
    tim.o(i.App_IntCfg) refers to tim.o(i.INT_SRC_TMRA_3_OVF_IrqCallback) for INT_SRC_TMRA_3_OVF_IrqCallback
    tim.o(i.App_TimerACfg) refers to hc32_ll_fcg.o(i.FCG_Fcg2PeriphClockCmd) for FCG_Fcg2PeriphClockCmd
    tim.o(i.App_TimerACfg) refers to hc32_ll_tmra.o(i.TMRA_StructInit) for TMRA_StructInit
    tim.o(i.App_TimerACfg) refers to hc32_ll_tmra.o(i.TMRA_Init) for TMRA_Init
    tim.o(i.App_TimerACfg) refers to hc32_ll_tmra.o(i.TMRA_IntCmd) for TMRA_IntCmd
    tim.o(i.App_TimerACfg) refers to hc32_ll_tmra.o(i.TMRA_Start) for TMRA_Start
    tim.o(i.App_TimerACfg) refers to hc32_ll_tmra.o(i.TMRA_PWM_StructInit) for TMRA_PWM_StructInit
    tim.o(i.App_TimerACfg) refers to hc32_ll_tmra.o(i.TMRA_PWM_Init) for TMRA_PWM_Init
    tim.o(i.App_TimerACfg) refers to hc32_ll_tmra.o(i.TMRA_SetFunc) for TMRA_SetFunc
    tim.o(i.App_TimerACfg) refers to hc32_ll_tmra.o(i.TMRA_PWM_OutputCmd) for TMRA_PWM_OutputCmd
    tim.o(i.INT_SRC_TMRA_1_OVF_IrqCallback) refers to fflti.o(.text) for __aeabi_i2f
    tim.o(i.INT_SRC_TMRA_1_OVF_IrqCallback) refers to tim.o(.data) for interrupt_count
    tim.o(i.INT_SRC_TMRA_3_CMP_IrqCallback) refers to hc32_ll_tmra.o(i.TMRA_ClearStatus) for TMRA_ClearStatus
    tim.o(i.INT_SRC_TMRA_3_CMP_IrqCallback) refers to control_step.o(i.Speed_Decision_S) for Speed_Decision_S
    tim.o(i.INT_SRC_TMRA_3_CMP_IrqCallback) refers to control_step.o(.data) for ns
    hc32_ll.o(i.LL_PERIPH_WE) refers to hc32_ll.o(i.PWC_REG_Unlock) for PWC_REG_Unlock
    hc32_ll.o(i.LL_PERIPH_WP) refers to hc32_ll.o(i.PWC_REG_Lock) for PWC_REG_Lock
    hc32_ll_utility.o(i.DDL_DelayMS) refers to system_hc32f460.o(.bss.noinit) for SystemCoreClock
    hc32_ll_utility.o(i.DDL_DelayUS) refers to system_hc32f460.o(.bss.noinit) for SystemCoreClock
    hc32_ll_utility.o(i.SysTick_Delay) refers to hc32_ll_utility.o(i.SysTick_GetTick) for SysTick_GetTick
    hc32_ll_utility.o(i.SysTick_Delay) refers to hc32_ll_utility.o(.data) for m_u32TickStep
    hc32_ll_utility.o(i.SysTick_GetTick) refers to hc32_ll_utility.o(.data) for m_u32TickCount
    hc32_ll_utility.o(i.SysTick_IncTick) refers to hc32_ll_utility.o(.data) for m_u32TickCount
    hc32_ll_utility.o(i.SysTick_Init) refers to hc32_ll_utility.o(.data) for m_u32TickStep
    hc32_ll_utility.o(i.SysTick_Init) refers to system_hc32f460.o(.bss.noinit) for SystemCoreClock
    hc32_ll_pwc.o(i.PWC_ClockBackup) refers to hc32_ll_utility.o(i.DDL_AssertHandler) for DDL_AssertHandler
    hc32_ll_pwc.o(i.PWC_ClockBackup) refers to hc32_ll_pwc.o(i.PWC_SetSysClk) for PWC_SetSysClk
    hc32_ll_pwc.o(i.PWC_ClockBackup) refers to hc32_ll_pwc.o(.data) for m_u8HrcState
    hc32_ll_pwc.o(i.PWC_ClockRecover) refers to hc32_ll_utility.o(i.DDL_AssertHandler) for DDL_AssertHandler
    hc32_ll_pwc.o(i.PWC_ClockRecover) refers to hc32_ll_pwc.o(i.PWC_SetSysClk) for PWC_SetSysClk
    hc32_ll_pwc.o(i.PWC_ClockRecover) refers to system_hc32f460.o(i.SystemCoreClockUpdate) for SystemCoreClockUpdate
    hc32_ll_pwc.o(i.PWC_ClockRecover) refers to hc32_ll_pwc.o(.data) for m_u8SysClockSource
    hc32_ll_pwc.o(i.PWC_HighPerformanceToHighSpeed) refers to hc32_ll_utility.o(i.DDL_AssertHandler) for DDL_AssertHandler
    hc32_ll_pwc.o(i.PWC_HighPerformanceToHighSpeed) refers to hc32_ll_utility.o(i.DDL_DelayUS) for DDL_DelayUS
    hc32_ll_pwc.o(i.PWC_HighPerformanceToLowSpeed) refers to hc32_ll_utility.o(i.DDL_AssertHandler) for DDL_AssertHandler
    hc32_ll_pwc.o(i.PWC_HighPerformanceToLowSpeed) refers to hc32_ll_utility.o(i.DDL_DelayUS) for DDL_DelayUS
    hc32_ll_pwc.o(i.PWC_HighSpeedToHighPerformance) refers to hc32_ll_utility.o(i.DDL_AssertHandler) for DDL_AssertHandler
    hc32_ll_pwc.o(i.PWC_HighSpeedToHighPerformance) refers to hc32_ll_utility.o(i.DDL_DelayUS) for DDL_DelayUS
    hc32_ll_pwc.o(i.PWC_HighSpeedToLowSpeed) refers to hc32_ll_utility.o(i.DDL_AssertHandler) for DDL_AssertHandler
    hc32_ll_pwc.o(i.PWC_HighSpeedToLowSpeed) refers to hc32_ll_utility.o(i.DDL_DelayUS) for DDL_DelayUS
    hc32_ll_pwc.o(i.PWC_LDO_Cmd) refers to hc32_ll_utility.o(i.DDL_AssertHandler) for DDL_AssertHandler
    hc32_ll_pwc.o(i.PWC_LVD_ClearStatus) refers to hc32_ll_utility.o(i.DDL_AssertHandler) for DDL_AssertHandler
    hc32_ll_pwc.o(i.PWC_LVD_Cmd) refers to hc32_ll_utility.o(i.DDL_AssertHandler) for DDL_AssertHandler
    hc32_ll_pwc.o(i.PWC_LVD_CompareOutputCmd) refers to hc32_ll_utility.o(i.DDL_AssertHandler) for DDL_AssertHandler
    hc32_ll_pwc.o(i.PWC_LVD_DeInit) refers to hc32_ll_utility.o(i.DDL_AssertHandler) for DDL_AssertHandler
    hc32_ll_pwc.o(i.PWC_LVD_DigitalFilterCmd) refers to hc32_ll_utility.o(i.DDL_AssertHandler) for DDL_AssertHandler
    hc32_ll_pwc.o(i.PWC_LVD_ExtInputCmd) refers to hc32_ll_utility.o(i.DDL_AssertHandler) for DDL_AssertHandler
    hc32_ll_pwc.o(i.PWC_LVD_GetStatus) refers to hc32_ll_utility.o(i.DDL_AssertHandler) for DDL_AssertHandler
    hc32_ll_pwc.o(i.PWC_LVD_Init) refers to hc32_ll_utility.o(i.DDL_AssertHandler) for DDL_AssertHandler
    hc32_ll_pwc.o(i.PWC_LVD_Init) refers to hc32_ll_utility.o(i.DDL_DelayUS) for DDL_DelayUS
    hc32_ll_pwc.o(i.PWC_LVD_SetFilterClock) refers to hc32_ll_utility.o(i.DDL_AssertHandler) for DDL_AssertHandler
    hc32_ll_pwc.o(i.PWC_LVD_SetThresholdVoltage) refers to hc32_ll_utility.o(i.DDL_AssertHandler) for DDL_AssertHandler
    hc32_ll_pwc.o(i.PWC_LowSpeedToHighPerformance) refers to hc32_ll_utility.o(i.DDL_AssertHandler) for DDL_AssertHandler
    hc32_ll_pwc.o(i.PWC_LowSpeedToHighPerformance) refers to hc32_ll_utility.o(i.DDL_DelayUS) for DDL_DelayUS
    hc32_ll_pwc.o(i.PWC_LowSpeedToHighSpeed) refers to hc32_ll_utility.o(i.DDL_AssertHandler) for DDL_AssertHandler
    hc32_ll_pwc.o(i.PWC_LowSpeedToHighSpeed) refers to hc32_ll_utility.o(i.DDL_DelayUS) for DDL_DelayUS
    hc32_ll_pwc.o(i.PWC_PD_ClearWakeupStatus) refers to hc32_ll_utility.o(i.DDL_AssertHandler) for DDL_AssertHandler
    hc32_ll_pwc.o(i.PWC_PD_Config) refers to hc32_ll_utility.o(i.DDL_AssertHandler) for DDL_AssertHandler
    hc32_ll_pwc.o(i.PWC_PD_GetWakeupStatus) refers to hc32_ll_utility.o(i.DDL_AssertHandler) for DDL_AssertHandler
    hc32_ll_pwc.o(i.PWC_PD_PeriphRamCmd) refers to hc32_ll_utility.o(i.DDL_AssertHandler) for DDL_AssertHandler
    hc32_ll_pwc.o(i.PWC_PD_SetIoState) refers to hc32_ll_utility.o(i.DDL_AssertHandler) for DDL_AssertHandler
    hc32_ll_pwc.o(i.PWC_PD_SetMode) refers to hc32_ll_utility.o(i.DDL_AssertHandler) for DDL_AssertHandler
    hc32_ll_pwc.o(i.PWC_PD_SetWakeupTriggerEdge) refers to hc32_ll_utility.o(i.DDL_AssertHandler) for DDL_AssertHandler
    hc32_ll_pwc.o(i.PWC_PD_VdrCmd) refers to hc32_ll_utility.o(i.DDL_AssertHandler) for DDL_AssertHandler
    hc32_ll_pwc.o(i.PWC_PowerMonitorCmd) refers to hc32_ll_utility.o(i.DDL_AssertHandler) for DDL_AssertHandler
    hc32_ll_pwc.o(i.PWC_RamModeConfig) refers to hc32_ll_utility.o(i.DDL_AssertHandler) for DDL_AssertHandler
    hc32_ll_pwc.o(i.PWC_RetSram_PowerCmd) refers to hc32_ll_utility.o(i.DDL_AssertHandler) for DDL_AssertHandler
    hc32_ll_pwc.o(i.PWC_SLEEP_Enter) refers to hc32_ll_utility.o(i.DDL_AssertHandler) for DDL_AssertHandler
    hc32_ll_pwc.o(i.PWC_STOP_ClockBackup) refers to hc32_ll_pwc.o(i.PWC_ClockBackup) for PWC_ClockBackup
    hc32_ll_pwc.o(i.PWC_STOP_ClockBackup) refers to hc32_ll_pwc.o(.data) for m_u8StopFlag
    hc32_ll_pwc.o(i.PWC_STOP_ClockRecover) refers to hc32_ll_pwc.o(i.PWC_ClockRecover) for PWC_ClockRecover
    hc32_ll_pwc.o(i.PWC_STOP_ClockRecover) refers to hc32_ll_pwc.o(.data) for m_u8StopFlag
    hc32_ll_pwc.o(i.PWC_STOP_ClockSelect) refers to hc32_ll_utility.o(i.DDL_AssertHandler) for DDL_AssertHandler
    hc32_ll_pwc.o(i.PWC_STOP_Config) refers to hc32_ll_utility.o(i.DDL_AssertHandler) for DDL_AssertHandler
    hc32_ll_pwc.o(i.PWC_STOP_Enter) refers to hc32_ll_utility.o(i.DDL_AssertHandler) for DDL_AssertHandler
    hc32_ll_pwc.o(i.PWC_STOP_Enter) refers to hc32_ll_pwc.o(i.PWC_STOP_NvicBackup) for PWC_STOP_NvicBackup
    hc32_ll_pwc.o(i.PWC_STOP_Enter) refers to hc32_ll_pwc.o(i.PWC_STOP_ClockBackup) for PWC_STOP_ClockBackup
    hc32_ll_pwc.o(i.PWC_STOP_Enter) refers to hc32_ll_pwc.o(i.PWC_STOP_ClockRecover) for PWC_STOP_ClockRecover
    hc32_ll_pwc.o(i.PWC_STOP_Enter) refers to hc32_ll_pwc.o(i.PWC_STOP_NvicRecover) for PWC_STOP_NvicRecover
    hc32_ll_pwc.o(i.PWC_STOP_FlashWaitCmd) refers to hc32_ll_utility.o(i.DDL_AssertHandler) for DDL_AssertHandler
    hc32_ll_pwc.o(i.PWC_STOP_IrqClockBackup) refers to hc32_ll_pwc.o(i.PWC_ClockBackup) for PWC_ClockBackup
    hc32_ll_pwc.o(i.PWC_STOP_IrqClockBackup) refers to hc32_ll_pwc.o(.data) for m_u8StopFlag
    hc32_ll_pwc.o(i.PWC_STOP_IrqClockRecover) refers to hc32_ll_pwc.o(i.PWC_ClockRecover) for PWC_ClockRecover
    hc32_ll_pwc.o(i.PWC_STOP_IrqClockRecover) refers to hc32_ll_pwc.o(.data) for m_u8WkupIntCount
    hc32_ll_pwc.o(i.PWC_STOP_NvicBackup) refers to hc32_ll_pwc.o(i.__NVIC_DisableIRQ) for __NVIC_DisableIRQ
    hc32_ll_pwc.o(i.PWC_STOP_NvicBackup) refers to hc32_ll_pwc.o(.bss) for NVIC_ISER_BAK
    hc32_ll_pwc.o(i.PWC_STOP_NvicRecover) refers to hc32_ll_pwc.o(.bss) for NVIC_ISER_BAK
    hc32_ll_pwc.o(i.PWC_STOP_SetDrv) refers to hc32_ll_utility.o(i.DDL_AssertHandler) for DDL_AssertHandler
    hc32_ll_pwc.o(i.PWC_SetSysClk) refers to hc32_ll_utility.o(i.DDL_AssertHandler) for DDL_AssertHandler
    hc32_ll_pwc.o(i.PWC_SetSysClk) refers to hc32_ll_utility.o(i.DDL_DelayUS) for DDL_DelayUS
    hc32_ll_pwc.o(i.PWC_SetSysClk) refers to system_hc32f460.o(i.SystemCoreClockUpdate) for SystemCoreClockUpdate
    hc32_ll_pwc.o(i.PWC_WKT_ClearStatus) refers to hc32_ll_utility.o(i.DDL_AssertHandler) for DDL_AssertHandler
    hc32_ll_pwc.o(i.PWC_WKT_Cmd) refers to hc32_ll_utility.o(i.DDL_AssertHandler) for DDL_AssertHandler
    hc32_ll_pwc.o(i.PWC_WKT_Config) refers to hc32_ll_utility.o(i.DDL_AssertHandler) for DDL_AssertHandler
    hc32_ll_pwc.o(i.PWC_WKT_SetCompareValue) refers to hc32_ll_utility.o(i.DDL_AssertHandler) for DDL_AssertHandler
    hc32_ll_pwc.o(i.PWC_XTAL32_PowerCmd) refers to hc32_ll_utility.o(i.DDL_AssertHandler) for DDL_AssertHandler
    hc32_ll_sram.o(i.SRAM_ClearStatus) refers to hc32_ll_utility.o(i.DDL_AssertHandler) for DDL_AssertHandler
    hc32_ll_sram.o(i.SRAM_DeInit) refers to hc32_ll_utility.o(i.DDL_AssertHandler) for DDL_AssertHandler
    hc32_ll_sram.o(i.SRAM_GetStatus) refers to hc32_ll_utility.o(i.DDL_AssertHandler) for DDL_AssertHandler
    hc32_ll_sram.o(i.SRAM_SetEccMode) refers to hc32_ll_utility.o(i.DDL_AssertHandler) for DDL_AssertHandler
    hc32_ll_sram.o(i.SRAM_SetExceptionType) refers to hc32_ll_utility.o(i.DDL_AssertHandler) for DDL_AssertHandler
    hc32_ll_sram.o(i.SRAM_SetWaitCycle) refers to hc32_ll_utility.o(i.DDL_AssertHandler) for DDL_AssertHandler
    hc32_ll_efm.o(RAMCODE) refers to system_hc32f460.o(.bss.noinit) for SystemCoreClock
    hc32_ll_efm.o(i.EFM_CacheCmd) refers to hc32_ll_utility.o(i.DDL_AssertHandler) for DDL_AssertHandler
    hc32_ll_efm.o(i.EFM_CacheRamReset) refers to hc32_ll_utility.o(i.DDL_AssertHandler) for DDL_AssertHandler
    hc32_ll_efm.o(i.EFM_ClearStatus) refers to hc32_ll_utility.o(i.DDL_AssertHandler) for DDL_AssertHandler
    hc32_ll_efm.o(i.EFM_Cmd) refers to hc32_ll_utility.o(i.DDL_AssertHandler) for DDL_AssertHandler
    hc32_ll_efm.o(i.EFM_FWMC_Cmd) refers to hc32_ll_utility.o(i.DDL_AssertHandler) for DDL_AssertHandler
    hc32_ll_efm.o(i.EFM_GetAnyStatus) refers to hc32_ll_utility.o(i.DDL_AssertHandler) for DDL_AssertHandler
    hc32_ll_efm.o(i.EFM_GetStatus) refers to hc32_ll_utility.o(i.DDL_AssertHandler) for DDL_AssertHandler
    hc32_ll_efm.o(i.EFM_IntCmd) refers to hc32_ll_utility.o(i.DDL_AssertHandler) for DDL_AssertHandler
    hc32_ll_efm.o(i.EFM_LowVoltageCmd) refers to hc32_ll_utility.o(i.DDL_AssertHandler) for DDL_AssertHandler
    hc32_ll_efm.o(i.EFM_LowVoltageReadCmd) refers to hc32_ll_utility.o(i.DDL_AssertHandler) for DDL_AssertHandler
    hc32_ll_efm.o(i.EFM_OTP_Lock) refers to hc32_ll_utility.o(i.DDL_AssertHandler) for DDL_AssertHandler
    hc32_ll_efm.o(i.EFM_OTP_Lock) refers to hc32_ll_efm.o(i.EFM_WaitEnd) for EFM_WaitEnd
    hc32_ll_efm.o(i.EFM_OTP_Lock) refers to system_hc32f460.o(.bss.noinit) for SystemCoreClock
    hc32_ll_efm.o(i.EFM_Program) refers to hc32_ll_utility.o(i.DDL_AssertHandler) for DDL_AssertHandler
    hc32_ll_efm.o(i.EFM_Program) refers to hc32_ll_efm.o(i.EFM_ClearStatus) for EFM_ClearStatus
    hc32_ll_efm.o(i.EFM_Program) refers to hc32_ll_efm.o(i.EFM_WaitEnd) for EFM_WaitEnd
    hc32_ll_efm.o(i.EFM_Program) refers to system_hc32f460.o(.bss.noinit) for SystemCoreClock
    hc32_ll_efm.o(i.EFM_ProgramWord) refers to hc32_ll_utility.o(i.DDL_AssertHandler) for DDL_AssertHandler
    hc32_ll_efm.o(i.EFM_ProgramWord) refers to hc32_ll_efm.o(i.EFM_ClearStatus) for EFM_ClearStatus
    hc32_ll_efm.o(i.EFM_ProgramWord) refers to hc32_ll_efm.o(i.EFM_WaitEnd) for EFM_WaitEnd
    hc32_ll_efm.o(i.EFM_ProgramWord) refers to system_hc32f460.o(.bss.noinit) for SystemCoreClock
    hc32_ll_efm.o(i.EFM_ProgramWordReadBack) refers to hc32_ll_utility.o(i.DDL_AssertHandler) for DDL_AssertHandler
    hc32_ll_efm.o(i.EFM_ProgramWordReadBack) refers to hc32_ll_efm.o(i.EFM_ClearStatus) for EFM_ClearStatus
    hc32_ll_efm.o(i.EFM_ProgramWordReadBack) refers to hc32_ll_efm.o(i.EFM_WaitReadBackEnd) for EFM_WaitReadBackEnd
    hc32_ll_efm.o(i.EFM_Protect_Enable) refers to hc32_ll_efm.o(i.EFM_Program) for EFM_Program
    hc32_ll_efm.o(i.EFM_Protect_Enable) refers to hc32_ll_efm.o(i.EFM_ProgramWord) for EFM_ProgramWord
    hc32_ll_efm.o(i.EFM_REMAP_Cmd) refers to hc32_ll_utility.o(i.DDL_AssertHandler) for DDL_AssertHandler
    hc32_ll_efm.o(i.EFM_REMAP_DeInit) refers to hc32_ll_utility.o(i.DDL_AssertHandler) for DDL_AssertHandler
    hc32_ll_efm.o(i.EFM_REMAP_Init) refers to hc32_ll_utility.o(i.DDL_AssertHandler) for DDL_AssertHandler
    hc32_ll_efm.o(i.EFM_REMAP_SetAddr) refers to hc32_ll_utility.o(i.DDL_AssertHandler) for DDL_AssertHandler
    hc32_ll_efm.o(i.EFM_REMAP_SetSize) refers to hc32_ll_utility.o(i.DDL_AssertHandler) for DDL_AssertHandler
    hc32_ll_efm.o(i.EFM_ReadByte) refers to hc32_ll_utility.o(i.DDL_AssertHandler) for DDL_AssertHandler
    hc32_ll_efm.o(i.EFM_ReadByte) refers to hc32_ll_efm.o(i.EFM_WaitFlag) for EFM_WaitFlag
    hc32_ll_efm.o(i.EFM_ReadByte) refers to system_hc32f460.o(.bss.noinit) for SystemCoreClock
    hc32_ll_efm.o(i.EFM_SectorErase) refers to hc32_ll_utility.o(i.DDL_AssertHandler) for DDL_AssertHandler
    hc32_ll_efm.o(i.EFM_SectorErase) refers to hc32_ll_efm.o(i.EFM_ClearStatus) for EFM_ClearStatus
    hc32_ll_efm.o(i.EFM_SectorErase) refers to hc32_ll_efm.o(i.EFM_WaitEnd) for EFM_WaitEnd
    hc32_ll_efm.o(i.EFM_SectorErase) refers to system_hc32f460.o(.bss.noinit) for SystemCoreClock
    hc32_ll_efm.o(i.EFM_SetBusStatus) refers to hc32_ll_utility.o(i.DDL_AssertHandler) for DDL_AssertHandler
    hc32_ll_efm.o(i.EFM_SetOperateMode) refers to hc32_ll_utility.o(i.DDL_AssertHandler) for DDL_AssertHandler
    hc32_ll_efm.o(i.EFM_SetOperateMode) refers to hc32_ll_efm.o(i.EFM_WaitFlag) for EFM_WaitFlag
    hc32_ll_efm.o(i.EFM_SetOperateMode) refers to system_hc32f460.o(.bss.noinit) for SystemCoreClock
    hc32_ll_efm.o(i.EFM_SetWaitCycle) refers to hc32_ll_utility.o(i.DDL_AssertHandler) for DDL_AssertHandler
    hc32_ll_efm.o(i.EFM_SetWaitCycle) refers to system_hc32f460.o(.bss.noinit) for SystemCoreClock
    hc32_ll_efm.o(i.EFM_SetWindowProtectAddr) refers to hc32_ll_utility.o(i.DDL_AssertHandler) for DDL_AssertHandler
    hc32_ll_efm.o(i.EFM_SwapCmd) refers to hc32_ll_utility.o(i.DDL_AssertHandler) for DDL_AssertHandler
    hc32_ll_efm.o(i.EFM_SwapCmd) refers to hc32_ll_efm.o(i.EFM_WaitEnd) for EFM_WaitEnd
    hc32_ll_efm.o(i.EFM_SwapCmd) refers to system_hc32f460.o(.bss.noinit) for SystemCoreClock
    hc32_ll_efm.o(i.EFM_WaitEnd) refers to hc32_ll_efm.o(i.EFM_WaitFlag) for EFM_WaitFlag
    hc32_ll_efm.o(i.EFM_WaitEnd) refers to hc32_ll_efm.o(i.EFM_GetStatus) for EFM_GetStatus
    hc32_ll_efm.o(i.EFM_WaitEnd) refers to hc32_ll_efm.o(i.EFM_ClearStatus) for EFM_ClearStatus
    hc32_ll_efm.o(i.EFM_WaitFlag) refers to hc32_ll_efm.o(i.EFM_GetStatus) for EFM_GetStatus
    hc32_ll_efm.o(i.EFM_WaitReadBackEnd) refers to hc32_ll_efm.o(i.EFM_WaitFlag) for EFM_WaitFlag
    hc32_ll_efm.o(i.EFM_WaitReadBackEnd) refers to hc32_ll_efm.o(i.EFM_GetStatus) for EFM_GetStatus
    hc32_ll_efm.o(i.EFM_WaitReadBackEnd) refers to hc32_ll_efm.o(i.EFM_ClearStatus) for EFM_ClearStatus
    hc32_ll_efm.o(i.EFM_WaitReadBackEnd) refers to system_hc32f460.o(.bss.noinit) for SystemCoreClock
    hc32_ll_efm.o(i.EFM_WriteSecurityCode) refers to hc32_ll_utility.o(i.DDL_AssertHandler) for DDL_AssertHandler
    hc32_ll_efm.o(i.EFM_WriteSecurityCode) refers to hc32_ll_efm.o(i.EFM_ClearStatus) for EFM_ClearStatus
    hc32_ll_efm.o(i.EFM_WriteSecurityCode) refers to hc32_ll_efm.o(i.EFM_WaitEnd) for EFM_WaitEnd
    hc32_ll_efm.o(i.EFM_WriteSecurityCode) refers to system_hc32f460.o(.bss.noinit) for SystemCoreClock
    hc32_ll_clk.o(i.CLK_ClearXtalStdStatus) refers to hc32_ll_utility.o(i.DDL_AssertHandler) for DDL_AssertHandler
    hc32_ll_clk.o(i.CLK_GetBusClockFreq) refers to hc32_ll_utility.o(i.DDL_AssertHandler) for DDL_AssertHandler
    hc32_ll_clk.o(i.CLK_GetBusClockFreq) refers to system_hc32f460.o(.bss.noinit) for SystemCoreClock
    hc32_ll_clk.o(i.CLK_GetClockFreq) refers to hc32_ll_clk.o(i.GetClockFreq) for GetClockFreq
    hc32_ll_clk.o(i.CLK_GetPLLClockFreq) refers to system_hc32f460.o(.bss.noinit) for HRC_VALUE
    hc32_ll_clk.o(i.CLK_GetStableStatus) refers to hc32_ll_utility.o(i.DDL_AssertHandler) for DDL_AssertHandler
    hc32_ll_clk.o(i.CLK_HrcCmd) refers to hc32_ll_utility.o(i.DDL_AssertHandler) for DDL_AssertHandler
    hc32_ll_clk.o(i.CLK_HrcCmd) refers to hc32_ll_clk.o(i.CLK_WaitStable) for CLK_WaitStable
    hc32_ll_clk.o(i.CLK_HrcTrim) refers to hc32_ll_utility.o(i.DDL_AssertHandler) for DDL_AssertHandler
    hc32_ll_clk.o(i.CLK_LrcCmd) refers to hc32_ll_utility.o(i.DDL_AssertHandler) for DDL_AssertHandler
    hc32_ll_clk.o(i.CLK_LrcCmd) refers to hc32_ll_utility.o(i.DDL_DelayUS) for DDL_DelayUS
    hc32_ll_clk.o(i.CLK_LrcTrim) refers to hc32_ll_utility.o(i.DDL_AssertHandler) for DDL_AssertHandler
    hc32_ll_clk.o(i.CLK_MCOCmd) refers to hc32_ll_utility.o(i.DDL_AssertHandler) for DDL_AssertHandler
    hc32_ll_clk.o(i.CLK_MCOConfig) refers to hc32_ll_utility.o(i.DDL_AssertHandler) for DDL_AssertHandler
    hc32_ll_clk.o(i.CLK_MrcCmd) refers to hc32_ll_utility.o(i.DDL_AssertHandler) for DDL_AssertHandler
    hc32_ll_clk.o(i.CLK_MrcCmd) refers to hc32_ll_utility.o(i.DDL_DelayUS) for DDL_DelayUS
    hc32_ll_clk.o(i.CLK_MrcTrim) refers to hc32_ll_utility.o(i.DDL_AssertHandler) for DDL_AssertHandler
    hc32_ll_clk.o(i.CLK_PLLCmd) refers to hc32_ll_utility.o(i.DDL_AssertHandler) for DDL_AssertHandler
    hc32_ll_clk.o(i.CLK_PLLCmd) refers to hc32_ll_clk.o(i.CLK_WaitStable) for CLK_WaitStable
    hc32_ll_clk.o(i.CLK_PLLInit) refers to hc32_ll_utility.o(i.DDL_AssertHandler) for DDL_AssertHandler
    hc32_ll_clk.o(i.CLK_PLLInit) refers to hc32_ll_clk.o(i.CLK_PLLCmd) for CLK_PLLCmd
    hc32_ll_clk.o(i.CLK_PLLInit) refers to system_hc32f460.o(.bss.noinit) for HRC_VALUE
    hc32_ll_clk.o(i.CLK_PLLxCmd) refers to hc32_ll_utility.o(i.DDL_AssertHandler) for DDL_AssertHandler
    hc32_ll_clk.o(i.CLK_PLLxCmd) refers to hc32_ll_clk.o(i.CLK_WaitStable) for CLK_WaitStable
    hc32_ll_clk.o(i.CLK_PLLxInit) refers to hc32_ll_clk.o(i.PLLxParamCheck) for PLLxParamCheck
    hc32_ll_clk.o(i.CLK_PLLxInit) refers to hc32_ll_clk.o(i.CLK_PLLxCmd) for CLK_PLLxCmd
    hc32_ll_clk.o(i.CLK_SetClockDiv) refers to hc32_ll_clk.o(i.SetSysClockDiv) for SetSysClockDiv
    hc32_ll_clk.o(i.CLK_SetClockDiv) refers to system_hc32f460.o(i.SystemCoreClockUpdate) for SystemCoreClockUpdate
    hc32_ll_clk.o(i.CLK_SetI2SClockSrc) refers to hc32_ll_utility.o(i.DDL_AssertHandler) for DDL_AssertHandler
    hc32_ll_clk.o(i.CLK_SetPLLSrc) refers to hc32_ll_utility.o(i.DDL_AssertHandler) for DDL_AssertHandler
    hc32_ll_clk.o(i.CLK_SetPeriClockSrc) refers to hc32_ll_utility.o(i.DDL_AssertHandler) for DDL_AssertHandler
    hc32_ll_clk.o(i.CLK_SetSysClockSrc) refers to hc32_ll_clk.o(i.SetSysClockSrc) for SetSysClockSrc
    hc32_ll_clk.o(i.CLK_SetSysClockSrc) refers to system_hc32f460.o(i.SystemCoreClockUpdate) for SystemCoreClockUpdate
    hc32_ll_clk.o(i.CLK_SetTpiuClockDiv) refers to hc32_ll_utility.o(i.DDL_AssertHandler) for DDL_AssertHandler
    hc32_ll_clk.o(i.CLK_SetUSBClockSrc) refers to hc32_ll_utility.o(i.DDL_AssertHandler) for DDL_AssertHandler
    hc32_ll_clk.o(i.CLK_SetUSBClockSrc) refers to hc32_ll_utility.o(i.DDL_DelayUS) for DDL_DelayUS
    hc32_ll_clk.o(i.CLK_SetXtalStdExceptionType) refers to hc32_ll_utility.o(i.DDL_AssertHandler) for DDL_AssertHandler
    hc32_ll_clk.o(i.CLK_TpiuClockCmd) refers to hc32_ll_utility.o(i.DDL_AssertHandler) for DDL_AssertHandler
    hc32_ll_clk.o(i.CLK_WaitStable) refers to hc32_ll_clk.o(i.CLK_GetStableStatus) for CLK_GetStableStatus
    hc32_ll_clk.o(i.CLK_Xtal32Cmd) refers to hc32_ll_utility.o(i.DDL_AssertHandler) for DDL_AssertHandler
    hc32_ll_clk.o(i.CLK_Xtal32Cmd) refers to hc32_ll_utility.o(i.DDL_DelayUS) for DDL_DelayUS
    hc32_ll_clk.o(i.CLK_Xtal32Init) refers to hc32_ll_utility.o(i.DDL_AssertHandler) for DDL_AssertHandler
    hc32_ll_clk.o(i.CLK_Xtal32Init) refers to hc32_ll_clk.o(i.CLK_Xtal32Cmd) for CLK_Xtal32Cmd
    hc32_ll_clk.o(i.CLK_XtalCmd) refers to hc32_ll_utility.o(i.DDL_AssertHandler) for DDL_AssertHandler
    hc32_ll_clk.o(i.CLK_XtalCmd) refers to hc32_ll_clk.o(i.CLK_WaitStable) for CLK_WaitStable
    hc32_ll_clk.o(i.CLK_XtalInit) refers to hc32_ll_utility.o(i.DDL_AssertHandler) for DDL_AssertHandler
    hc32_ll_clk.o(i.CLK_XtalInit) refers to hc32_ll_clk.o(i.CLK_XtalCmd) for CLK_XtalCmd
    hc32_ll_clk.o(i.CLK_XtalStdCmd) refers to hc32_ll_utility.o(i.DDL_AssertHandler) for DDL_AssertHandler
    hc32_ll_clk.o(i.CLK_XtalStdInit) refers to hc32_ll_utility.o(i.DDL_AssertHandler) for DDL_AssertHandler
    hc32_ll_clk.o(i.GetClockFreq) refers to system_hc32f460.o(.bss.noinit) for HRC_VALUE
    hc32_ll_clk.o(i.PLLxParamCheck) refers to hc32_ll_utility.o(i.DDL_AssertHandler) for DDL_AssertHandler
    hc32_ll_clk.o(i.PLLxParamCheck) refers to system_hc32f460.o(.bss.noinit) for HRC_VALUE
    hc32_ll_clk.o(i.SetSysClockDiv) refers to hc32_ll_utility.o(i.DDL_AssertHandler) for DDL_AssertHandler
    hc32_ll_clk.o(i.SetSysClockDiv) refers to hc32_ll_utility.o(i.DDL_DelayUS) for DDL_DelayUS
    hc32_ll_clk.o(i.SetSysClockSrc) refers to hc32_ll_utility.o(i.DDL_AssertHandler) for DDL_AssertHandler
    hc32_ll_clk.o(i.SetSysClockSrc) refers to hc32_ll_utility.o(i.DDL_DelayUS) for DDL_DelayUS
    hc32_ll_gpio.o(i.GPIO_AnalogCmd) refers to hc32_ll_utility.o(i.DDL_AssertHandler) for DDL_AssertHandler
    hc32_ll_gpio.o(i.GPIO_DeInit) refers to hc32_ll_utility.o(i.DDL_AssertHandler) for DDL_AssertHandler
    hc32_ll_gpio.o(i.GPIO_DeInit) refers to hc32_ll_gpio.o(i.GPIO_StructInit) for GPIO_StructInit
    hc32_ll_gpio.o(i.GPIO_DeInit) refers to hc32_ll_gpio.o(i.GPIO_Init) for GPIO_Init
    hc32_ll_gpio.o(i.GPIO_DeInit) refers to hc32_ll_gpio.o(.constdata) for m_astcGpioPortPinTbl
    hc32_ll_gpio.o(i.GPIO_ExtIntCmd) refers to hc32_ll_utility.o(i.DDL_AssertHandler) for DDL_AssertHandler
    hc32_ll_gpio.o(i.GPIO_Init) refers to hc32_ll_utility.o(i.DDL_AssertHandler) for DDL_AssertHandler
    hc32_ll_gpio.o(i.GPIO_InputMOSCmd) refers to hc32_ll_utility.o(i.DDL_AssertHandler) for DDL_AssertHandler
    hc32_ll_gpio.o(i.GPIO_OutputCmd) refers to hc32_ll_utility.o(i.DDL_AssertHandler) for DDL_AssertHandler
    hc32_ll_gpio.o(i.GPIO_ReadInputPins) refers to hc32_ll_utility.o(i.DDL_AssertHandler) for DDL_AssertHandler
    hc32_ll_gpio.o(i.GPIO_ReadInputPort) refers to hc32_ll_utility.o(i.DDL_AssertHandler) for DDL_AssertHandler
    hc32_ll_gpio.o(i.GPIO_ReadOutputPins) refers to hc32_ll_utility.o(i.DDL_AssertHandler) for DDL_AssertHandler
    hc32_ll_gpio.o(i.GPIO_ReadOutputPort) refers to hc32_ll_utility.o(i.DDL_AssertHandler) for DDL_AssertHandler
    hc32_ll_gpio.o(i.GPIO_ResetPins) refers to hc32_ll_utility.o(i.DDL_AssertHandler) for DDL_AssertHandler
    hc32_ll_gpio.o(i.GPIO_SetDebugPort) refers to hc32_ll_utility.o(i.DDL_AssertHandler) for DDL_AssertHandler
    hc32_ll_gpio.o(i.GPIO_SetFunc) refers to hc32_ll_utility.o(i.DDL_AssertHandler) for DDL_AssertHandler
    hc32_ll_gpio.o(i.GPIO_SetPins) refers to hc32_ll_utility.o(i.DDL_AssertHandler) for DDL_AssertHandler
    hc32_ll_gpio.o(i.GPIO_SetReadWaitCycle) refers to hc32_ll_utility.o(i.DDL_AssertHandler) for DDL_AssertHandler
    hc32_ll_gpio.o(i.GPIO_SetSubFunc) refers to hc32_ll_utility.o(i.DDL_AssertHandler) for DDL_AssertHandler
    hc32_ll_gpio.o(i.GPIO_SubFuncCmd) refers to hc32_ll_utility.o(i.DDL_AssertHandler) for DDL_AssertHandler
    hc32_ll_gpio.o(i.GPIO_TogglePins) refers to hc32_ll_utility.o(i.DDL_AssertHandler) for DDL_AssertHandler
    hc32_ll_gpio.o(i.GPIO_WritePort) refers to hc32_ll_utility.o(i.DDL_AssertHandler) for DDL_AssertHandler
    hc32_ll_fcg.o(i.FCG_Fcg0PeriphClockCmd) refers to hc32_ll_utility.o(i.DDL_AssertHandler) for DDL_AssertHandler
    hc32_ll_fcg.o(i.FCG_Fcg1PeriphClockCmd) refers to hc32_ll_utility.o(i.DDL_AssertHandler) for DDL_AssertHandler
    hc32_ll_fcg.o(i.FCG_Fcg2PeriphClockCmd) refers to hc32_ll_utility.o(i.DDL_AssertHandler) for DDL_AssertHandler
    hc32_ll_fcg.o(i.FCG_Fcg3PeriphClockCmd) refers to hc32_ll_utility.o(i.DDL_AssertHandler) for DDL_AssertHandler
    hc32_ll_aos.o(i.AOS_CommonTriggerCmd) refers to hc32_ll_utility.o(i.DDL_AssertHandler) for DDL_AssertHandler
    hc32_ll_aos.o(i.AOS_SetTriggerEventSrc) refers to hc32_ll_utility.o(i.DDL_AssertHandler) for DDL_AssertHandler
    hc32_ll_cmp.o(i.CMP_8BitDAC_AdcRefCmd) refers to hc32_ll_utility.o(i.DDL_AssertHandler) for DDL_AssertHandler
    hc32_ll_cmp.o(i.CMP_8BitDAC_Cmd) refers to hc32_ll_utility.o(i.DDL_AssertHandler) for DDL_AssertHandler
    hc32_ll_cmp.o(i.CMP_8BitDAC_WriteData) refers to hc32_ll_utility.o(i.DDL_AssertHandler) for DDL_AssertHandler
    hc32_ll_cmp.o(i.CMP_CompareOutCmd) refers to hc32_ll_utility.o(i.DDL_AssertHandler) for DDL_AssertHandler
    hc32_ll_cmp.o(i.CMP_DeInit) refers to hc32_ll_utility.o(i.DDL_AssertHandler) for DDL_AssertHandler
    hc32_ll_cmp.o(i.CMP_DelayUS) refers to system_hc32f460.o(.bss.noinit) for SystemCoreClock
    hc32_ll_cmp.o(i.CMP_FuncCmd) refers to hc32_ll_utility.o(i.DDL_AssertHandler) for DDL_AssertHandler
    hc32_ll_cmp.o(i.CMP_FuncCmd) refers to hc32_ll_cmp.o(i.CMP_DelayUS) for CMP_DelayUS
    hc32_ll_cmp.o(i.CMP_GetScanInpSrc) refers to hc32_ll_utility.o(i.DDL_AssertHandler) for DDL_AssertHandler
    hc32_ll_cmp.o(i.CMP_GetStatus) refers to hc32_ll_utility.o(i.DDL_AssertHandler) for DDL_AssertHandler
    hc32_ll_cmp.o(i.CMP_IntCmd) refers to hc32_ll_utility.o(i.DDL_AssertHandler) for DDL_AssertHandler
    hc32_ll_cmp.o(i.CMP_NormalModeInit) refers to hc32_ll_utility.o(i.DDL_AssertHandler) for DDL_AssertHandler
    hc32_ll_cmp.o(i.CMP_NormalModeInit) refers to hc32_ll_cmp.o(i.CMP_DelayUS) for CMP_DelayUS
    hc32_ll_cmp.o(i.CMP_PinVcoutCmd) refers to hc32_ll_utility.o(i.DDL_AssertHandler) for DDL_AssertHandler
    hc32_ll_cmp.o(i.CMP_ScanCmd) refers to hc32_ll_utility.o(i.DDL_AssertHandler) for DDL_AssertHandler
    hc32_ll_cmp.o(i.CMP_ScanTimeConfig) refers to hc32_ll_utility.o(i.DDL_AssertHandler) for DDL_AssertHandler
    hc32_ll_cmp.o(i.CMP_SetNegativeInput) refers to hc32_ll_utility.o(i.DDL_AssertHandler) for DDL_AssertHandler
    hc32_ll_cmp.o(i.CMP_SetNegativeInput) refers to hc32_ll_cmp.o(i.GetCmpFuncStatusAndDisFunc) for GetCmpFuncStatusAndDisFunc
    hc32_ll_cmp.o(i.CMP_SetNegativeInput) refers to hc32_ll_cmp.o(i.RecoverCmpFuncStatus) for RecoverCmpFuncStatus
    hc32_ll_cmp.o(i.CMP_SetOutDetectEdge) refers to hc32_ll_utility.o(i.DDL_AssertHandler) for DDL_AssertHandler
    hc32_ll_cmp.o(i.CMP_SetOutDetectEdge) refers to hc32_ll_cmp.o(i.GetCmpFuncStatusAndDisFunc) for GetCmpFuncStatusAndDisFunc
    hc32_ll_cmp.o(i.CMP_SetOutDetectEdge) refers to hc32_ll_cmp.o(i.RecoverCmpFuncStatus) for RecoverCmpFuncStatus
    hc32_ll_cmp.o(i.CMP_SetOutFilter) refers to hc32_ll_utility.o(i.DDL_AssertHandler) for DDL_AssertHandler
    hc32_ll_cmp.o(i.CMP_SetOutFilter) refers to hc32_ll_cmp.o(i.GetCmpFuncStatusAndDisFunc) for GetCmpFuncStatusAndDisFunc
    hc32_ll_cmp.o(i.CMP_SetOutFilter) refers to hc32_ll_cmp.o(i.RecoverCmpFuncStatus) for RecoverCmpFuncStatus
    hc32_ll_cmp.o(i.CMP_SetOutPolarity) refers to hc32_ll_utility.o(i.DDL_AssertHandler) for DDL_AssertHandler
    hc32_ll_cmp.o(i.CMP_SetOutPolarity) refers to hc32_ll_cmp.o(i.GetCmpFuncStatusAndDisFunc) for GetCmpFuncStatusAndDisFunc
    hc32_ll_cmp.o(i.CMP_SetOutPolarity) refers to hc32_ll_cmp.o(i.RecoverCmpFuncStatus) for RecoverCmpFuncStatus
    hc32_ll_cmp.o(i.CMP_SetPositiveInput) refers to hc32_ll_utility.o(i.DDL_AssertHandler) for DDL_AssertHandler
    hc32_ll_cmp.o(i.CMP_SetPositiveInput) refers to hc32_ll_cmp.o(i.GetCmpFuncStatusAndDisFunc) for GetCmpFuncStatusAndDisFunc
    hc32_ll_cmp.o(i.CMP_SetPositiveInput) refers to hc32_ll_cmp.o(i.RecoverCmpFuncStatus) for RecoverCmpFuncStatus
    hc32_ll_cmp.o(i.GetCmpFuncStatusAndDisFunc) refers to hc32_ll_utility.o(i.DDL_AssertHandler) for DDL_AssertHandler
    hc32_ll_cmp.o(i.RecoverCmpFuncStatus) refers to hc32_ll_cmp.o(i.CMP_DelayUS) for CMP_DelayUS
    hc32_ll_interrupts.o(i.EXTINT_ClearExtIntStatus) refers to hc32_ll_utility.o(i.DDL_AssertHandler) for DDL_AssertHandler
    hc32_ll_interrupts.o(i.EXTINT_GetExtIntStatus) refers to hc32_ll_utility.o(i.DDL_AssertHandler) for DDL_AssertHandler
    hc32_ll_interrupts.o(i.EXTINT_Init) refers to hc32_ll_utility.o(i.DDL_AssertHandler) for DDL_AssertHandler
    hc32_ll_interrupts.o(i.INTC_EventCmd) refers to hc32_ll_utility.o(i.DDL_AssertHandler) for DDL_AssertHandler
    hc32_ll_interrupts.o(i.INTC_IntCmd) refers to hc32_ll_utility.o(i.DDL_AssertHandler) for DDL_AssertHandler
    hc32_ll_interrupts.o(i.INTC_IrqSignIn) refers to hc32_ll_utility.o(i.DDL_AssertHandler) for DDL_AssertHandler
    hc32_ll_interrupts.o(i.INTC_IrqSignIn) refers to hc32_ll_interrupts.o(.bss) for m_apfnIrqHandler
    hc32_ll_interrupts.o(i.INTC_IrqSignOut) refers to hc32_ll_interrupts.o(.bss) for m_apfnIrqHandler
    hc32_ll_interrupts.o(i.INTC_SWIntCmd) refers to hc32_ll_utility.o(i.DDL_AssertHandler) for DDL_AssertHandler
    hc32_ll_interrupts.o(i.INTC_SWIntInit) refers to hc32_ll_interrupts.o(i.INTC_IrqSignIn) for INTC_IrqSignIn
    hc32_ll_interrupts.o(i.INTC_WakeupSrcCmd) refers to hc32_ll_utility.o(i.DDL_AssertHandler) for DDL_AssertHandler
    hc32_ll_interrupts.o(i.IRQ000_Handler) refers to hc32_ll_interrupts.o(.bss) for m_apfnIrqHandler
    hc32_ll_interrupts.o(i.IRQ001_Handler) refers to hc32_ll_interrupts.o(.bss) for m_apfnIrqHandler
    hc32_ll_interrupts.o(i.IRQ002_Handler) refers to hc32_ll_interrupts.o(.bss) for m_apfnIrqHandler
    hc32_ll_interrupts.o(i.IRQ003_Handler) refers to hc32_ll_interrupts.o(.bss) for m_apfnIrqHandler
    hc32_ll_interrupts.o(i.IRQ004_Handler) refers to hc32_ll_interrupts.o(.bss) for m_apfnIrqHandler
    hc32_ll_interrupts.o(i.IRQ005_Handler) refers to hc32_ll_interrupts.o(.bss) for m_apfnIrqHandler
    hc32_ll_interrupts.o(i.IRQ006_Handler) refers to hc32_ll_interrupts.o(.bss) for m_apfnIrqHandler
    hc32_ll_interrupts.o(i.IRQ007_Handler) refers to hc32_ll_interrupts.o(.bss) for m_apfnIrqHandler
    hc32_ll_interrupts.o(i.IRQ008_Handler) refers to hc32_ll_interrupts.o(.bss) for m_apfnIrqHandler
    hc32_ll_interrupts.o(i.IRQ009_Handler) refers to hc32_ll_interrupts.o(.bss) for m_apfnIrqHandler
    hc32_ll_interrupts.o(i.IRQ010_Handler) refers to hc32_ll_interrupts.o(.bss) for m_apfnIrqHandler
    hc32_ll_interrupts.o(i.IRQ011_Handler) refers to hc32_ll_interrupts.o(.bss) for m_apfnIrqHandler
    hc32_ll_interrupts.o(i.IRQ012_Handler) refers to hc32_ll_interrupts.o(.bss) for m_apfnIrqHandler
    hc32_ll_interrupts.o(i.IRQ013_Handler) refers to hc32_ll_interrupts.o(.bss) for m_apfnIrqHandler
    hc32_ll_interrupts.o(i.IRQ014_Handler) refers to hc32_ll_interrupts.o(.bss) for m_apfnIrqHandler
    hc32_ll_interrupts.o(i.IRQ015_Handler) refers to hc32_ll_interrupts.o(.bss) for m_apfnIrqHandler
    hc32_ll_interrupts.o(i.IRQ016_Handler) refers to hc32_ll_interrupts.o(.bss) for m_apfnIrqHandler
    hc32_ll_interrupts.o(i.IRQ017_Handler) refers to hc32_ll_interrupts.o(.bss) for m_apfnIrqHandler
    hc32_ll_interrupts.o(i.IRQ018_Handler) refers to hc32_ll_interrupts.o(.bss) for m_apfnIrqHandler
    hc32_ll_interrupts.o(i.IRQ019_Handler) refers to hc32_ll_interrupts.o(.bss) for m_apfnIrqHandler
    hc32_ll_interrupts.o(i.IRQ020_Handler) refers to hc32_ll_interrupts.o(.bss) for m_apfnIrqHandler
    hc32_ll_interrupts.o(i.IRQ021_Handler) refers to hc32_ll_interrupts.o(.bss) for m_apfnIrqHandler
    hc32_ll_interrupts.o(i.IRQ022_Handler) refers to hc32_ll_interrupts.o(.bss) for m_apfnIrqHandler
    hc32_ll_interrupts.o(i.IRQ023_Handler) refers to hc32_ll_interrupts.o(.bss) for m_apfnIrqHandler
    hc32_ll_interrupts.o(i.IRQ024_Handler) refers to hc32_ll_interrupts.o(.bss) for m_apfnIrqHandler
    hc32_ll_interrupts.o(i.IRQ025_Handler) refers to hc32_ll_interrupts.o(.bss) for m_apfnIrqHandler
    hc32_ll_interrupts.o(i.IRQ026_Handler) refers to hc32_ll_interrupts.o(.bss) for m_apfnIrqHandler
    hc32_ll_interrupts.o(i.IRQ027_Handler) refers to hc32_ll_interrupts.o(.bss) for m_apfnIrqHandler
    hc32_ll_interrupts.o(i.IRQ028_Handler) refers to hc32_ll_interrupts.o(.bss) for m_apfnIrqHandler
    hc32_ll_interrupts.o(i.IRQ029_Handler) refers to hc32_ll_interrupts.o(.bss) for m_apfnIrqHandler
    hc32_ll_interrupts.o(i.IRQ030_Handler) refers to hc32_ll_interrupts.o(.bss) for m_apfnIrqHandler
    hc32_ll_interrupts.o(i.IRQ031_Handler) refers to hc32_ll_interrupts.o(.bss) for m_apfnIrqHandler
    hc32_ll_interrupts.o(i.IRQ032_Handler) refers to hc32_ll_interrupts.o(.bss) for m_apfnIrqHandler
    hc32_ll_interrupts.o(i.IRQ033_Handler) refers to hc32_ll_interrupts.o(.bss) for m_apfnIrqHandler
    hc32_ll_interrupts.o(i.IRQ034_Handler) refers to hc32_ll_interrupts.o(.bss) for m_apfnIrqHandler
    hc32_ll_interrupts.o(i.IRQ035_Handler) refers to hc32_ll_interrupts.o(.bss) for m_apfnIrqHandler
    hc32_ll_interrupts.o(i.IRQ036_Handler) refers to hc32_ll_interrupts.o(.bss) for m_apfnIrqHandler
    hc32_ll_interrupts.o(i.IRQ037_Handler) refers to hc32_ll_interrupts.o(.bss) for m_apfnIrqHandler
    hc32_ll_interrupts.o(i.IRQ038_Handler) refers to hc32_ll_interrupts.o(.bss) for m_apfnIrqHandler
    hc32_ll_interrupts.o(i.IRQ039_Handler) refers to hc32_ll_interrupts.o(.bss) for m_apfnIrqHandler
    hc32_ll_interrupts.o(i.IRQ040_Handler) refers to hc32_ll_interrupts.o(.bss) for m_apfnIrqHandler
    hc32_ll_interrupts.o(i.IRQ041_Handler) refers to hc32_ll_interrupts.o(.bss) for m_apfnIrqHandler
    hc32_ll_interrupts.o(i.IRQ042_Handler) refers to hc32_ll_interrupts.o(.bss) for m_apfnIrqHandler
    hc32_ll_interrupts.o(i.IRQ043_Handler) refers to hc32_ll_interrupts.o(.bss) for m_apfnIrqHandler
    hc32_ll_interrupts.o(i.IRQ044_Handler) refers to hc32_ll_interrupts.o(.bss) for m_apfnIrqHandler
    hc32_ll_interrupts.o(i.IRQ045_Handler) refers to hc32_ll_interrupts.o(.bss) for m_apfnIrqHandler
    hc32_ll_interrupts.o(i.IRQ046_Handler) refers to hc32_ll_interrupts.o(.bss) for m_apfnIrqHandler
    hc32_ll_interrupts.o(i.IRQ047_Handler) refers to hc32_ll_interrupts.o(.bss) for m_apfnIrqHandler
    hc32_ll_interrupts.o(i.IRQ048_Handler) refers to hc32_ll_interrupts.o(.bss) for m_apfnIrqHandler
    hc32_ll_interrupts.o(i.IRQ049_Handler) refers to hc32_ll_interrupts.o(.bss) for m_apfnIrqHandler
    hc32_ll_interrupts.o(i.IRQ050_Handler) refers to hc32_ll_interrupts.o(.bss) for m_apfnIrqHandler
    hc32_ll_interrupts.o(i.IRQ051_Handler) refers to hc32_ll_interrupts.o(.bss) for m_apfnIrqHandler
    hc32_ll_interrupts.o(i.IRQ052_Handler) refers to hc32_ll_interrupts.o(.bss) for m_apfnIrqHandler
    hc32_ll_interrupts.o(i.IRQ053_Handler) refers to hc32_ll_interrupts.o(.bss) for m_apfnIrqHandler
    hc32_ll_interrupts.o(i.IRQ054_Handler) refers to hc32_ll_interrupts.o(.bss) for m_apfnIrqHandler
    hc32_ll_interrupts.o(i.IRQ055_Handler) refers to hc32_ll_interrupts.o(.bss) for m_apfnIrqHandler
    hc32_ll_interrupts.o(i.IRQ056_Handler) refers to hc32_ll_interrupts.o(.bss) for m_apfnIrqHandler
    hc32_ll_interrupts.o(i.IRQ057_Handler) refers to hc32_ll_interrupts.o(.bss) for m_apfnIrqHandler
    hc32_ll_interrupts.o(i.IRQ058_Handler) refers to hc32_ll_interrupts.o(.bss) for m_apfnIrqHandler
    hc32_ll_interrupts.o(i.IRQ059_Handler) refers to hc32_ll_interrupts.o(.bss) for m_apfnIrqHandler
    hc32_ll_interrupts.o(i.IRQ060_Handler) refers to hc32_ll_interrupts.o(.bss) for m_apfnIrqHandler
    hc32_ll_interrupts.o(i.IRQ061_Handler) refers to hc32_ll_interrupts.o(.bss) for m_apfnIrqHandler
    hc32_ll_interrupts.o(i.IRQ062_Handler) refers to hc32_ll_interrupts.o(.bss) for m_apfnIrqHandler
    hc32_ll_interrupts.o(i.IRQ063_Handler) refers to hc32_ll_interrupts.o(.bss) for m_apfnIrqHandler
    hc32_ll_interrupts.o(i.IRQ064_Handler) refers to hc32_ll_interrupts.o(.bss) for m_apfnIrqHandler
    hc32_ll_interrupts.o(i.IRQ065_Handler) refers to hc32_ll_interrupts.o(.bss) for m_apfnIrqHandler
    hc32_ll_interrupts.o(i.IRQ066_Handler) refers to hc32_ll_interrupts.o(.bss) for m_apfnIrqHandler
    hc32_ll_interrupts.o(i.IRQ067_Handler) refers to hc32_ll_interrupts.o(.bss) for m_apfnIrqHandler
    hc32_ll_interrupts.o(i.IRQ068_Handler) refers to hc32_ll_interrupts.o(.bss) for m_apfnIrqHandler
    hc32_ll_interrupts.o(i.IRQ069_Handler) refers to hc32_ll_interrupts.o(.bss) for m_apfnIrqHandler
    hc32_ll_interrupts.o(i.IRQ070_Handler) refers to hc32_ll_interrupts.o(.bss) for m_apfnIrqHandler
    hc32_ll_interrupts.o(i.IRQ071_Handler) refers to hc32_ll_interrupts.o(.bss) for m_apfnIrqHandler
    hc32_ll_interrupts.o(i.IRQ072_Handler) refers to hc32_ll_interrupts.o(.bss) for m_apfnIrqHandler
    hc32_ll_interrupts.o(i.IRQ073_Handler) refers to hc32_ll_interrupts.o(.bss) for m_apfnIrqHandler
    hc32_ll_interrupts.o(i.IRQ074_Handler) refers to hc32_ll_interrupts.o(.bss) for m_apfnIrqHandler
    hc32_ll_interrupts.o(i.IRQ075_Handler) refers to hc32_ll_interrupts.o(.bss) for m_apfnIrqHandler
    hc32_ll_interrupts.o(i.IRQ076_Handler) refers to hc32_ll_interrupts.o(.bss) for m_apfnIrqHandler
    hc32_ll_interrupts.o(i.IRQ077_Handler) refers to hc32_ll_interrupts.o(.bss) for m_apfnIrqHandler
    hc32_ll_interrupts.o(i.IRQ078_Handler) refers to hc32_ll_interrupts.o(.bss) for m_apfnIrqHandler
    hc32_ll_interrupts.o(i.IRQ079_Handler) refers to hc32_ll_interrupts.o(.bss) for m_apfnIrqHandler
    hc32_ll_interrupts.o(i.IRQ080_Handler) refers to hc32_ll_interrupts.o(.bss) for m_apfnIrqHandler
    hc32_ll_interrupts.o(i.IRQ081_Handler) refers to hc32_ll_interrupts.o(.bss) for m_apfnIrqHandler
    hc32_ll_interrupts.o(i.IRQ082_Handler) refers to hc32_ll_interrupts.o(.bss) for m_apfnIrqHandler
    hc32_ll_interrupts.o(i.IRQ083_Handler) refers to hc32_ll_interrupts.o(.bss) for m_apfnIrqHandler
    hc32_ll_interrupts.o(i.IRQ084_Handler) refers to hc32_ll_interrupts.o(.bss) for m_apfnIrqHandler
    hc32_ll_interrupts.o(i.IRQ085_Handler) refers to hc32_ll_interrupts.o(.bss) for m_apfnIrqHandler
    hc32_ll_interrupts.o(i.IRQ086_Handler) refers to hc32_ll_interrupts.o(.bss) for m_apfnIrqHandler
    hc32_ll_interrupts.o(i.IRQ087_Handler) refers to hc32_ll_interrupts.o(.bss) for m_apfnIrqHandler
    hc32_ll_interrupts.o(i.IRQ088_Handler) refers to hc32_ll_interrupts.o(.bss) for m_apfnIrqHandler
    hc32_ll_interrupts.o(i.IRQ089_Handler) refers to hc32_ll_interrupts.o(.bss) for m_apfnIrqHandler
    hc32_ll_interrupts.o(i.IRQ090_Handler) refers to hc32_ll_interrupts.o(.bss) for m_apfnIrqHandler
    hc32_ll_interrupts.o(i.IRQ091_Handler) refers to hc32_ll_interrupts.o(.bss) for m_apfnIrqHandler
    hc32_ll_interrupts.o(i.IRQ092_Handler) refers to hc32_ll_interrupts.o(.bss) for m_apfnIrqHandler
    hc32_ll_interrupts.o(i.IRQ093_Handler) refers to hc32_ll_interrupts.o(.bss) for m_apfnIrqHandler
    hc32_ll_interrupts.o(i.IRQ094_Handler) refers to hc32_ll_interrupts.o(.bss) for m_apfnIrqHandler
    hc32_ll_interrupts.o(i.IRQ095_Handler) refers to hc32_ll_interrupts.o(.bss) for m_apfnIrqHandler
    hc32_ll_interrupts.o(i.IRQ096_Handler) refers to hc32_ll_interrupts.o(.bss) for m_apfnIrqHandler
    hc32_ll_interrupts.o(i.IRQ097_Handler) refers to hc32_ll_interrupts.o(.bss) for m_apfnIrqHandler
    hc32_ll_interrupts.o(i.IRQ098_Handler) refers to hc32_ll_interrupts.o(.bss) for m_apfnIrqHandler
    hc32_ll_interrupts.o(i.IRQ099_Handler) refers to hc32_ll_interrupts.o(.bss) for m_apfnIrqHandler
    hc32_ll_interrupts.o(i.IRQ100_Handler) refers to hc32_ll_interrupts.o(.bss) for m_apfnIrqHandler
    hc32_ll_interrupts.o(i.IRQ101_Handler) refers to hc32_ll_interrupts.o(.bss) for m_apfnIrqHandler
    hc32_ll_interrupts.o(i.IRQ102_Handler) refers to hc32_ll_interrupts.o(.bss) for m_apfnIrqHandler
    hc32_ll_interrupts.o(i.IRQ103_Handler) refers to hc32_ll_interrupts.o(.bss) for m_apfnIrqHandler
    hc32_ll_interrupts.o(i.IRQ104_Handler) refers to hc32_ll_interrupts.o(.bss) for m_apfnIrqHandler
    hc32_ll_interrupts.o(i.IRQ105_Handler) refers to hc32_ll_interrupts.o(.bss) for m_apfnIrqHandler
    hc32_ll_interrupts.o(i.IRQ106_Handler) refers to hc32_ll_interrupts.o(.bss) for m_apfnIrqHandler
    hc32_ll_interrupts.o(i.IRQ107_Handler) refers to hc32_ll_interrupts.o(.bss) for m_apfnIrqHandler
    hc32_ll_interrupts.o(i.IRQ108_Handler) refers to hc32_ll_interrupts.o(.bss) for m_apfnIrqHandler
    hc32_ll_interrupts.o(i.IRQ109_Handler) refers to hc32_ll_interrupts.o(.bss) for m_apfnIrqHandler
    hc32_ll_interrupts.o(i.IRQ110_Handler) refers to hc32_ll_interrupts.o(.bss) for m_apfnIrqHandler
    hc32_ll_interrupts.o(i.IRQ111_Handler) refers to hc32_ll_interrupts.o(.bss) for m_apfnIrqHandler
    hc32_ll_interrupts.o(i.IRQ112_Handler) refers to hc32_ll_interrupts.o(.bss) for m_apfnIrqHandler
    hc32_ll_interrupts.o(i.IRQ113_Handler) refers to hc32_ll_interrupts.o(.bss) for m_apfnIrqHandler
    hc32_ll_interrupts.o(i.IRQ114_Handler) refers to hc32_ll_interrupts.o(.bss) for m_apfnIrqHandler
    hc32_ll_interrupts.o(i.IRQ115_Handler) refers to hc32_ll_interrupts.o(.bss) for m_apfnIrqHandler
    hc32_ll_interrupts.o(i.IRQ116_Handler) refers to hc32_ll_interrupts.o(.bss) for m_apfnIrqHandler
    hc32_ll_interrupts.o(i.IRQ117_Handler) refers to hc32_ll_interrupts.o(.bss) for m_apfnIrqHandler
    hc32_ll_interrupts.o(i.IRQ118_Handler) refers to hc32_ll_interrupts.o(.bss) for m_apfnIrqHandler
    hc32_ll_interrupts.o(i.IRQ119_Handler) refers to hc32_ll_interrupts.o(.bss) for m_apfnIrqHandler
    hc32_ll_interrupts.o(i.IRQ120_Handler) refers to hc32_ll_interrupts.o(.bss) for m_apfnIrqHandler
    hc32_ll_interrupts.o(i.IRQ121_Handler) refers to hc32_ll_interrupts.o(.bss) for m_apfnIrqHandler
    hc32_ll_interrupts.o(i.IRQ122_Handler) refers to hc32_ll_interrupts.o(.bss) for m_apfnIrqHandler
    hc32_ll_interrupts.o(i.IRQ123_Handler) refers to hc32_ll_interrupts.o(.bss) for m_apfnIrqHandler
    hc32_ll_interrupts.o(i.IRQ124_Handler) refers to hc32_ll_interrupts.o(.bss) for m_apfnIrqHandler
    hc32_ll_interrupts.o(i.IRQ125_Handler) refers to hc32_ll_interrupts.o(.bss) for m_apfnIrqHandler
    hc32_ll_interrupts.o(i.IRQ126_Handler) refers to hc32_ll_interrupts.o(.bss) for m_apfnIrqHandler
    hc32_ll_interrupts.o(i.IRQ127_Handler) refers to hc32_ll_interrupts.o(.bss) for m_apfnIrqHandler
    hc32_ll_interrupts.o(i.NMI_ClearNmiStatus) refers to hc32_ll_utility.o(i.DDL_AssertHandler) for DDL_AssertHandler
    hc32_ll_interrupts.o(i.NMI_GetNmiStatus) refers to hc32_ll_utility.o(i.DDL_AssertHandler) for DDL_AssertHandler
    hc32_ll_interrupts.o(i.NMI_Init) refers to hc32_ll_utility.o(i.DDL_AssertHandler) for DDL_AssertHandler
    hc32_ll_interrupts.o(i.NMI_NmiSrcCmd) refers to hc32_ll_utility.o(i.DDL_AssertHandler) for DDL_AssertHandler
    hc32f460_ll_interrupts_share.o(i.INTC_ShareIrqCmd) refers to hc32_ll_utility.o(i.DDL_AssertHandler) for DDL_AssertHandler
    hc32f460_ll_interrupts_share.o(i.IRQ128_Handler) refers to hc32f460_ll_interrupts_share.o(i.EXTINT00_IrqHandler) for EXTINT00_IrqHandler
    hc32f460_ll_interrupts_share.o(i.IRQ128_Handler) refers to hc32f460_ll_interrupts_share.o(i.EXTINT01_IrqHandler) for EXTINT01_IrqHandler
    hc32f460_ll_interrupts_share.o(i.IRQ128_Handler) refers to hc32f460_ll_interrupts_share.o(i.EXTINT02_IrqHandler) for EXTINT02_IrqHandler
    hc32f460_ll_interrupts_share.o(i.IRQ128_Handler) refers to hc32f460_ll_interrupts_share.o(i.EXTINT03_IrqHandler) for EXTINT03_IrqHandler
    hc32f460_ll_interrupts_share.o(i.IRQ128_Handler) refers to hc32f460_ll_interrupts_share.o(i.EXTINT04_IrqHandler) for EXTINT04_IrqHandler
    hc32f460_ll_interrupts_share.o(i.IRQ128_Handler) refers to hc32f460_ll_interrupts_share.o(i.EXTINT05_IrqHandler) for EXTINT05_IrqHandler
    hc32f460_ll_interrupts_share.o(i.IRQ128_Handler) refers to hc32f460_ll_interrupts_share.o(i.EXTINT06_IrqHandler) for EXTINT06_IrqHandler
    hc32f460_ll_interrupts_share.o(i.IRQ128_Handler) refers to hc32f460_ll_interrupts_share.o(i.EXTINT07_IrqHandler) for EXTINT07_IrqHandler
    hc32f460_ll_interrupts_share.o(i.IRQ128_Handler) refers to hc32f460_ll_interrupts_share.o(i.EXTINT08_IrqHandler) for EXTINT08_IrqHandler
    hc32f460_ll_interrupts_share.o(i.IRQ128_Handler) refers to hc32f460_ll_interrupts_share.o(i.EXTINT09_IrqHandler) for EXTINT09_IrqHandler
    hc32f460_ll_interrupts_share.o(i.IRQ128_Handler) refers to hc32f460_ll_interrupts_share.o(i.EXTINT10_IrqHandler) for EXTINT10_IrqHandler
    hc32f460_ll_interrupts_share.o(i.IRQ128_Handler) refers to hc32f460_ll_interrupts_share.o(i.EXTINT11_IrqHandler) for EXTINT11_IrqHandler
    hc32f460_ll_interrupts_share.o(i.IRQ128_Handler) refers to hc32f460_ll_interrupts_share.o(i.EXTINT12_IrqHandler) for EXTINT12_IrqHandler
    hc32f460_ll_interrupts_share.o(i.IRQ128_Handler) refers to hc32f460_ll_interrupts_share.o(i.EXTINT13_IrqHandler) for EXTINT13_IrqHandler
    hc32f460_ll_interrupts_share.o(i.IRQ128_Handler) refers to hc32f460_ll_interrupts_share.o(i.EXTINT14_IrqHandler) for EXTINT14_IrqHandler
    hc32f460_ll_interrupts_share.o(i.IRQ128_Handler) refers to hc32f460_ll_interrupts_share.o(i.EXTINT15_IrqHandler) for EXTINT15_IrqHandler
    hc32f460_ll_interrupts_share.o(i.IRQ129_Handler) refers to hc32f460_ll_interrupts_share.o(i.DMA1_TC0_IrqHandler) for DMA1_TC0_IrqHandler
    hc32f460_ll_interrupts_share.o(i.IRQ129_Handler) refers to hc32f460_ll_interrupts_share.o(i.DMA1_BTC0_IrqHandler) for DMA1_BTC0_IrqHandler
    hc32f460_ll_interrupts_share.o(i.IRQ129_Handler) refers to hc32f460_ll_interrupts_share.o(i.DMA1_Error0_IrqHandler) for DMA1_Error0_IrqHandler
    hc32f460_ll_interrupts_share.o(i.IRQ129_Handler) refers to hc32f460_ll_interrupts_share.o(i.DMA1_TC1_IrqHandler) for DMA1_TC1_IrqHandler
    hc32f460_ll_interrupts_share.o(i.IRQ129_Handler) refers to hc32f460_ll_interrupts_share.o(i.DMA1_BTC1_IrqHandler) for DMA1_BTC1_IrqHandler
    hc32f460_ll_interrupts_share.o(i.IRQ129_Handler) refers to hc32f460_ll_interrupts_share.o(i.DMA1_Error1_IrqHandler) for DMA1_Error1_IrqHandler
    hc32f460_ll_interrupts_share.o(i.IRQ129_Handler) refers to hc32f460_ll_interrupts_share.o(i.DMA1_TC2_IrqHandler) for DMA1_TC2_IrqHandler
    hc32f460_ll_interrupts_share.o(i.IRQ129_Handler) refers to hc32f460_ll_interrupts_share.o(i.DMA1_BTC2_IrqHandler) for DMA1_BTC2_IrqHandler
    hc32f460_ll_interrupts_share.o(i.IRQ129_Handler) refers to hc32f460_ll_interrupts_share.o(i.DMA1_Error2_IrqHandler) for DMA1_Error2_IrqHandler
    hc32f460_ll_interrupts_share.o(i.IRQ129_Handler) refers to hc32f460_ll_interrupts_share.o(i.DMA1_TC3_IrqHandler) for DMA1_TC3_IrqHandler
    hc32f460_ll_interrupts_share.o(i.IRQ129_Handler) refers to hc32f460_ll_interrupts_share.o(i.DMA1_BTC3_IrqHandler) for DMA1_BTC3_IrqHandler
    hc32f460_ll_interrupts_share.o(i.IRQ129_Handler) refers to hc32f460_ll_interrupts_share.o(i.DMA1_Error3_IrqHandler) for DMA1_Error3_IrqHandler
    hc32f460_ll_interrupts_share.o(i.IRQ129_Handler) refers to hc32f460_ll_interrupts_share.o(i.DMA2_TC0_IrqHandler) for DMA2_TC0_IrqHandler
    hc32f460_ll_interrupts_share.o(i.IRQ129_Handler) refers to hc32f460_ll_interrupts_share.o(i.DMA2_BTC0_IrqHandler) for DMA2_BTC0_IrqHandler
    hc32f460_ll_interrupts_share.o(i.IRQ129_Handler) refers to hc32f460_ll_interrupts_share.o(i.DMA2_Error0_IrqHandler) for DMA2_Error0_IrqHandler
    hc32f460_ll_interrupts_share.o(i.IRQ129_Handler) refers to hc32f460_ll_interrupts_share.o(i.DMA2_TC1_IrqHandler) for DMA2_TC1_IrqHandler
    hc32f460_ll_interrupts_share.o(i.IRQ129_Handler) refers to hc32f460_ll_interrupts_share.o(i.DMA2_BTC1_IrqHandler) for DMA2_BTC1_IrqHandler
    hc32f460_ll_interrupts_share.o(i.IRQ129_Handler) refers to hc32f460_ll_interrupts_share.o(i.DMA2_Error1_IrqHandler) for DMA2_Error1_IrqHandler
    hc32f460_ll_interrupts_share.o(i.IRQ129_Handler) refers to hc32f460_ll_interrupts_share.o(i.DMA2_TC2_IrqHandler) for DMA2_TC2_IrqHandler
    hc32f460_ll_interrupts_share.o(i.IRQ129_Handler) refers to hc32f460_ll_interrupts_share.o(i.DMA2_BTC2_IrqHandler) for DMA2_BTC2_IrqHandler
    hc32f460_ll_interrupts_share.o(i.IRQ129_Handler) refers to hc32f460_ll_interrupts_share.o(i.DMA2_Error2_IrqHandler) for DMA2_Error2_IrqHandler
    hc32f460_ll_interrupts_share.o(i.IRQ129_Handler) refers to hc32f460_ll_interrupts_share.o(i.DMA2_TC3_IrqHandler) for DMA2_TC3_IrqHandler
    hc32f460_ll_interrupts_share.o(i.IRQ129_Handler) refers to hc32f460_ll_interrupts_share.o(i.DMA2_BTC3_IrqHandler) for DMA2_BTC3_IrqHandler
    hc32f460_ll_interrupts_share.o(i.IRQ129_Handler) refers to hc32f460_ll_interrupts_share.o(i.DMA2_Error3_IrqHandler) for DMA2_Error3_IrqHandler
    hc32f460_ll_interrupts_share.o(i.IRQ129_Handler) refers to hc32f460_ll_interrupts_share.o(i.EFM_ProgramEraseError_IrqHandler) for EFM_ProgramEraseError_IrqHandler
    hc32f460_ll_interrupts_share.o(i.IRQ129_Handler) refers to hc32f460_ll_interrupts_share.o(i.EFM_ColError_IrqHandler) for EFM_ColError_IrqHandler
    hc32f460_ll_interrupts_share.o(i.IRQ129_Handler) refers to hc32f460_ll_interrupts_share.o(i.EFM_OpEnd_IrqHandler) for EFM_OpEnd_IrqHandler
    hc32f460_ll_interrupts_share.o(i.IRQ129_Handler) refers to hc32f460_ll_interrupts_share.o(i.QSPI_Error_IrqHandler) for QSPI_Error_IrqHandler
    hc32f460_ll_interrupts_share.o(i.IRQ129_Handler) refers to hc32f460_ll_interrupts_share.o(i.DCU1_IrqHandler) for DCU1_IrqHandler
    hc32f460_ll_interrupts_share.o(i.IRQ129_Handler) refers to hc32f460_ll_interrupts_share.o(i.DCU2_IrqHandler) for DCU2_IrqHandler
    hc32f460_ll_interrupts_share.o(i.IRQ129_Handler) refers to hc32f460_ll_interrupts_share.o(i.DCU3_IrqHandler) for DCU3_IrqHandler
    hc32f460_ll_interrupts_share.o(i.IRQ129_Handler) refers to hc32f460_ll_interrupts_share.o(i.DCU4_IrqHandler) for DCU4_IrqHandler
    hc32f460_ll_interrupts_share.o(i.IRQ130_Handler) refers to hc32f460_ll_interrupts_share.o(i.TMR0_1_CmpA_IrqHandler) for TMR0_1_CmpA_IrqHandler
    hc32f460_ll_interrupts_share.o(i.IRQ130_Handler) refers to hc32f460_ll_interrupts_share.o(i.TMR0_1_CmpB_IrqHandler) for TMR0_1_CmpB_IrqHandler
    hc32f460_ll_interrupts_share.o(i.IRQ130_Handler) refers to hc32f460_ll_interrupts_share.o(i.TMR0_2_CmpA_IrqHandler) for TMR0_2_CmpA_IrqHandler
    hc32f460_ll_interrupts_share.o(i.IRQ130_Handler) refers to hc32f460_ll_interrupts_share.o(i.TMR0_2_CmpB_IrqHandler) for TMR0_2_CmpB_IrqHandler
    hc32f460_ll_interrupts_share.o(i.IRQ130_Handler) refers to hc32f460_ll_interrupts_share.o(i.CLK_XtalStop_IrqHandler) for CLK_XtalStop_IrqHandler
    hc32f460_ll_interrupts_share.o(i.IRQ130_Handler) refers to hc32f460_ll_interrupts_share.o(i.PWC_WakeupTimer_IrqHandler) for PWC_WakeupTimer_IrqHandler
    hc32f460_ll_interrupts_share.o(i.IRQ130_Handler) refers to hc32f460_ll_interrupts_share.o(i.SWDT_IrqHandler) for SWDT_IrqHandler
    hc32f460_ll_interrupts_share.o(i.IRQ131_Handler) refers to hc32f460_ll_interrupts_share.o(i.TMR6_1_GCmpA_IrqHandler) for TMR6_1_GCmpA_IrqHandler
    hc32f460_ll_interrupts_share.o(i.IRQ131_Handler) refers to hc32f460_ll_interrupts_share.o(i.TMR6_1_GCmpB_IrqHandler) for TMR6_1_GCmpB_IrqHandler
    hc32f460_ll_interrupts_share.o(i.IRQ131_Handler) refers to hc32f460_ll_interrupts_share.o(i.TMR6_1_GCmpC_IrqHandler) for TMR6_1_GCmpC_IrqHandler
    hc32f460_ll_interrupts_share.o(i.IRQ131_Handler) refers to hc32f460_ll_interrupts_share.o(i.TMR6_1_GCmpD_IrqHandler) for TMR6_1_GCmpD_IrqHandler
    hc32f460_ll_interrupts_share.o(i.IRQ131_Handler) refers to hc32f460_ll_interrupts_share.o(i.TMR6_1_GCmpE_IrqHandler) for TMR6_1_GCmpE_IrqHandler
    hc32f460_ll_interrupts_share.o(i.IRQ131_Handler) refers to hc32f460_ll_interrupts_share.o(i.TMR6_1_GCmpF_IrqHandler) for TMR6_1_GCmpF_IrqHandler
    hc32f460_ll_interrupts_share.o(i.IRQ131_Handler) refers to hc32f460_ll_interrupts_share.o(i.TMR6_1_GOvf_IrqHandler) for TMR6_1_GOvf_IrqHandler
    hc32f460_ll_interrupts_share.o(i.IRQ131_Handler) refers to hc32f460_ll_interrupts_share.o(i.TMR6_1_GUdf_IrqHandler) for TMR6_1_GUdf_IrqHandler
    hc32f460_ll_interrupts_share.o(i.IRQ131_Handler) refers to hc32f460_ll_interrupts_share.o(i.TMR6_1_GDte_IrqHandler) for TMR6_1_GDte_IrqHandler
    hc32f460_ll_interrupts_share.o(i.IRQ131_Handler) refers to hc32f460_ll_interrupts_share.o(i.TMR6_1_SCmpA_IrqHandler) for TMR6_1_SCmpA_IrqHandler
    hc32f460_ll_interrupts_share.o(i.IRQ131_Handler) refers to hc32f460_ll_interrupts_share.o(i.TMR6_1_SCmpB_IrqHandler) for TMR6_1_SCmpB_IrqHandler
    hc32f460_ll_interrupts_share.o(i.IRQ131_Handler) refers to hc32f460_ll_interrupts_share.o(i.TMR6_2_GCmpA_IrqHandler) for TMR6_2_GCmpA_IrqHandler
    hc32f460_ll_interrupts_share.o(i.IRQ131_Handler) refers to hc32f460_ll_interrupts_share.o(i.TMR6_2_GCmpB_IrqHandler) for TMR6_2_GCmpB_IrqHandler
    hc32f460_ll_interrupts_share.o(i.IRQ131_Handler) refers to hc32f460_ll_interrupts_share.o(i.TMR6_2_GCmpC_IrqHandler) for TMR6_2_GCmpC_IrqHandler
    hc32f460_ll_interrupts_share.o(i.IRQ131_Handler) refers to hc32f460_ll_interrupts_share.o(i.TMR6_2_GCmpD_IrqHandler) for TMR6_2_GCmpD_IrqHandler
    hc32f460_ll_interrupts_share.o(i.IRQ131_Handler) refers to hc32f460_ll_interrupts_share.o(i.TMR6_2_GCmpE_IrqHandler) for TMR6_2_GCmpE_IrqHandler
    hc32f460_ll_interrupts_share.o(i.IRQ131_Handler) refers to hc32f460_ll_interrupts_share.o(i.TMR6_2_GCmpF_IrqHandler) for TMR6_2_GCmpF_IrqHandler
    hc32f460_ll_interrupts_share.o(i.IRQ131_Handler) refers to hc32f460_ll_interrupts_share.o(i.TMR6_2_GOvf_IrqHandler) for TMR6_2_GOvf_IrqHandler
    hc32f460_ll_interrupts_share.o(i.IRQ131_Handler) refers to hc32f460_ll_interrupts_share.o(i.TMR6_2_GUdf_IrqHandler) for TMR6_2_GUdf_IrqHandler
    hc32f460_ll_interrupts_share.o(i.IRQ131_Handler) refers to hc32f460_ll_interrupts_share.o(i.TMR6_2_GDte_IrqHandler) for TMR6_2_GDte_IrqHandler
    hc32f460_ll_interrupts_share.o(i.IRQ131_Handler) refers to hc32f460_ll_interrupts_share.o(i.TMR6_2_SCmpA_IrqHandler) for TMR6_2_SCmpA_IrqHandler
    hc32f460_ll_interrupts_share.o(i.IRQ131_Handler) refers to hc32f460_ll_interrupts_share.o(i.TMR6_2_SCmpB_IrqHandler) for TMR6_2_SCmpB_IrqHandler
    hc32f460_ll_interrupts_share.o(i.IRQ132_Handler) refers to hc32f460_ll_interrupts_share.o(i.TMR6_3_GCmpA_IrqHandler) for TMR6_3_GCmpA_IrqHandler
    hc32f460_ll_interrupts_share.o(i.IRQ132_Handler) refers to hc32f460_ll_interrupts_share.o(i.TMR6_3_GCmpB_IrqHandler) for TMR6_3_GCmpB_IrqHandler
    hc32f460_ll_interrupts_share.o(i.IRQ132_Handler) refers to hc32f460_ll_interrupts_share.o(i.TMR6_3_GCmpC_IrqHandler) for TMR6_3_GCmpC_IrqHandler
    hc32f460_ll_interrupts_share.o(i.IRQ132_Handler) refers to hc32f460_ll_interrupts_share.o(i.TMR6_3_GCmpD_IrqHandler) for TMR6_3_GCmpD_IrqHandler
    hc32f460_ll_interrupts_share.o(i.IRQ132_Handler) refers to hc32f460_ll_interrupts_share.o(i.TMR6_3_GCmpE_IrqHandler) for TMR6_3_GCmpE_IrqHandler
    hc32f460_ll_interrupts_share.o(i.IRQ132_Handler) refers to hc32f460_ll_interrupts_share.o(i.TMR6_3_GCmpF_IrqHandler) for TMR6_3_GCmpF_IrqHandler
    hc32f460_ll_interrupts_share.o(i.IRQ132_Handler) refers to hc32f460_ll_interrupts_share.o(i.TMR6_3_GOvf_IrqHandler) for TMR6_3_GOvf_IrqHandler
    hc32f460_ll_interrupts_share.o(i.IRQ132_Handler) refers to hc32f460_ll_interrupts_share.o(i.TMR6_3_GUdf_IrqHandler) for TMR6_3_GUdf_IrqHandler
    hc32f460_ll_interrupts_share.o(i.IRQ132_Handler) refers to hc32f460_ll_interrupts_share.o(i.TMR6_3_GDte_IrqHandler) for TMR6_3_GDte_IrqHandler
    hc32f460_ll_interrupts_share.o(i.IRQ132_Handler) refers to hc32f460_ll_interrupts_share.o(i.TMR6_3_SCmpA_IrqHandler) for TMR6_3_SCmpA_IrqHandler
    hc32f460_ll_interrupts_share.o(i.IRQ132_Handler) refers to hc32f460_ll_interrupts_share.o(i.TMR6_3_SCmpB_IrqHandler) for TMR6_3_SCmpB_IrqHandler
    hc32f460_ll_interrupts_share.o(i.IRQ136_Handler) refers to hc32f460_ll_interrupts_share.o(i.TMRA_1_Ovf_IrqHandler) for TMRA_1_Ovf_IrqHandler
    hc32f460_ll_interrupts_share.o(i.IRQ136_Handler) refers to hc32f460_ll_interrupts_share.o(i.TMRA_1_Udf_IrqHandler) for TMRA_1_Udf_IrqHandler
    hc32f460_ll_interrupts_share.o(i.IRQ136_Handler) refers to hc32f460_ll_interrupts_share.o(i.TMRA_1_Cmp_IrqHandler) for TMRA_1_Cmp_IrqHandler
    hc32f460_ll_interrupts_share.o(i.IRQ136_Handler) refers to hc32f460_ll_interrupts_share.o(i.TMRA_2_Ovf_IrqHandler) for TMRA_2_Ovf_IrqHandler
    hc32f460_ll_interrupts_share.o(i.IRQ136_Handler) refers to hc32f460_ll_interrupts_share.o(i.TMRA_2_Udf_IrqHandler) for TMRA_2_Udf_IrqHandler
    hc32f460_ll_interrupts_share.o(i.IRQ136_Handler) refers to hc32f460_ll_interrupts_share.o(i.TMRA_2_Cmp_IrqHandler) for TMRA_2_Cmp_IrqHandler
    hc32f460_ll_interrupts_share.o(i.IRQ136_Handler) refers to hc32f460_ll_interrupts_share.o(i.TMRA_3_Ovf_IrqHandler) for TMRA_3_Ovf_IrqHandler
    hc32f460_ll_interrupts_share.o(i.IRQ136_Handler) refers to hc32f460_ll_interrupts_share.o(i.TMRA_3_Udf_IrqHandler) for TMRA_3_Udf_IrqHandler
    hc32f460_ll_interrupts_share.o(i.IRQ136_Handler) refers to hc32f460_ll_interrupts_share.o(i.TMRA_3_Cmp_IrqHandler) for TMRA_3_Cmp_IrqHandler
    hc32f460_ll_interrupts_share.o(i.IRQ136_Handler) refers to hc32f460_ll_interrupts_share.o(i.TMRA_4_Ovf_IrqHandler) for TMRA_4_Ovf_IrqHandler
    hc32f460_ll_interrupts_share.o(i.IRQ136_Handler) refers to hc32f460_ll_interrupts_share.o(i.TMRA_4_Udf_IrqHandler) for TMRA_4_Udf_IrqHandler
    hc32f460_ll_interrupts_share.o(i.IRQ136_Handler) refers to hc32f460_ll_interrupts_share.o(i.TMRA_4_Cmp_IrqHandler) for TMRA_4_Cmp_IrqHandler
    hc32f460_ll_interrupts_share.o(i.IRQ136_Handler) refers to hc32f460_ll_interrupts_share.o(i.TMRA_5_Ovf_IrqHandler) for TMRA_5_Ovf_IrqHandler
    hc32f460_ll_interrupts_share.o(i.IRQ136_Handler) refers to hc32f460_ll_interrupts_share.o(i.TMRA_5_Udf_IrqHandler) for TMRA_5_Udf_IrqHandler
    hc32f460_ll_interrupts_share.o(i.IRQ136_Handler) refers to hc32f460_ll_interrupts_share.o(i.TMRA_5_Cmp_IrqHandler) for TMRA_5_Cmp_IrqHandler
    hc32f460_ll_interrupts_share.o(i.IRQ136_Handler) refers to hc32f460_ll_interrupts_share.o(i.TMRA_6_Ovf_IrqHandler) for TMRA_6_Ovf_IrqHandler
    hc32f460_ll_interrupts_share.o(i.IRQ136_Handler) refers to hc32f460_ll_interrupts_share.o(i.TMRA_6_Udf_IrqHandler) for TMRA_6_Udf_IrqHandler
    hc32f460_ll_interrupts_share.o(i.IRQ136_Handler) refers to hc32f460_ll_interrupts_share.o(i.TMRA_6_Cmp_IrqHandler) for TMRA_6_Cmp_IrqHandler
    hc32f460_ll_interrupts_share.o(i.IRQ136_Handler) refers to hc32f460_ll_interrupts_share.o(i.USBFS_Global_IrqHandler) for USBFS_Global_IrqHandler
    hc32f460_ll_interrupts_share.o(i.IRQ136_Handler) refers to hc32f460_ll_interrupts_share.o(i.USART1_RxError_IrqHandler) for USART1_RxError_IrqHandler
    hc32f460_ll_interrupts_share.o(i.IRQ136_Handler) refers to hc32f460_ll_interrupts_share.o(i.USART1_RxFull_IrqHandler) for USART1_RxFull_IrqHandler
    hc32f460_ll_interrupts_share.o(i.IRQ136_Handler) refers to hc32f460_ll_interrupts_share.o(i.USART1_TxEmpty_IrqHandler) for USART1_TxEmpty_IrqHandler
    hc32f460_ll_interrupts_share.o(i.IRQ136_Handler) refers to hc32f460_ll_interrupts_share.o(i.USART1_TxComplete_IrqHandler) for USART1_TxComplete_IrqHandler
    hc32f460_ll_interrupts_share.o(i.IRQ136_Handler) refers to hc32f460_ll_interrupts_share.o(i.USART1_RxTO_IrqHandler) for USART1_RxTO_IrqHandler
    hc32f460_ll_interrupts_share.o(i.IRQ136_Handler) refers to hc32f460_ll_interrupts_share.o(i.USART2_RxError_IrqHandler) for USART2_RxError_IrqHandler
    hc32f460_ll_interrupts_share.o(i.IRQ136_Handler) refers to hc32f460_ll_interrupts_share.o(i.USART2_RxFull_IrqHandler) for USART2_RxFull_IrqHandler
    hc32f460_ll_interrupts_share.o(i.IRQ136_Handler) refers to hc32f460_ll_interrupts_share.o(i.USART2_TxEmpty_IrqHandler) for USART2_TxEmpty_IrqHandler
    hc32f460_ll_interrupts_share.o(i.IRQ136_Handler) refers to hc32f460_ll_interrupts_share.o(i.USART2_TxComplete_IrqHandler) for USART2_TxComplete_IrqHandler
    hc32f460_ll_interrupts_share.o(i.IRQ136_Handler) refers to hc32f460_ll_interrupts_share.o(i.USART2_RxTO_IrqHandler) for USART2_RxTO_IrqHandler
    hc32f460_ll_interrupts_share.o(i.IRQ137_Handler) refers to hc32f460_ll_interrupts_share.o(i.USART3_RxError_IrqHandler) for USART3_RxError_IrqHandler
    hc32f460_ll_interrupts_share.o(i.IRQ137_Handler) refers to hc32f460_ll_interrupts_share.o(i.USART3_RxFull_IrqHandler) for USART3_RxFull_IrqHandler
    hc32f460_ll_interrupts_share.o(i.IRQ137_Handler) refers to hc32f460_ll_interrupts_share.o(i.USART3_TxEmpty_IrqHandler) for USART3_TxEmpty_IrqHandler
    hc32f460_ll_interrupts_share.o(i.IRQ137_Handler) refers to hc32f460_ll_interrupts_share.o(i.USART3_TxComplete_IrqHandler) for USART3_TxComplete_IrqHandler
    hc32f460_ll_interrupts_share.o(i.IRQ137_Handler) refers to hc32f460_ll_interrupts_share.o(i.USART3_RxTO_IrqHandler) for USART3_RxTO_IrqHandler
    hc32f460_ll_interrupts_share.o(i.IRQ137_Handler) refers to hc32f460_ll_interrupts_share.o(i.USART4_RxError_IrqHandler) for USART4_RxError_IrqHandler
    hc32f460_ll_interrupts_share.o(i.IRQ137_Handler) refers to hc32f460_ll_interrupts_share.o(i.USART4_RxFull_IrqHandler) for USART4_RxFull_IrqHandler
    hc32f460_ll_interrupts_share.o(i.IRQ137_Handler) refers to hc32f460_ll_interrupts_share.o(i.USART4_TxEmpty_IrqHandler) for USART4_TxEmpty_IrqHandler
    hc32f460_ll_interrupts_share.o(i.IRQ137_Handler) refers to hc32f460_ll_interrupts_share.o(i.USART4_TxComplete_IrqHandler) for USART4_TxComplete_IrqHandler
    hc32f460_ll_interrupts_share.o(i.IRQ137_Handler) refers to hc32f460_ll_interrupts_share.o(i.USART4_RxTO_IrqHandler) for USART4_RxTO_IrqHandler
    hc32f460_ll_interrupts_share.o(i.IRQ137_Handler) refers to hc32f460_ll_interrupts_share.o(i.SPI1_RxFull_IrqHandler) for SPI1_RxFull_IrqHandler
    hc32f460_ll_interrupts_share.o(i.IRQ137_Handler) refers to hc32f460_ll_interrupts_share.o(i.SPI1_TxEmpty_IrqHandler) for SPI1_TxEmpty_IrqHandler
    hc32f460_ll_interrupts_share.o(i.IRQ137_Handler) refers to hc32f460_ll_interrupts_share.o(i.SPI1_Idle_IrqHandler) for SPI1_Idle_IrqHandler
    hc32f460_ll_interrupts_share.o(i.IRQ137_Handler) refers to hc32f460_ll_interrupts_share.o(i.SPI1_Error_IrqHandler) for SPI1_Error_IrqHandler
    hc32f460_ll_interrupts_share.o(i.IRQ137_Handler) refers to hc32f460_ll_interrupts_share.o(i.SPI2_RxFull_IrqHandler) for SPI2_RxFull_IrqHandler
    hc32f460_ll_interrupts_share.o(i.IRQ137_Handler) refers to hc32f460_ll_interrupts_share.o(i.SPI2_TxEmpty_IrqHandler) for SPI2_TxEmpty_IrqHandler
    hc32f460_ll_interrupts_share.o(i.IRQ137_Handler) refers to hc32f460_ll_interrupts_share.o(i.SPI2_Idle_IrqHandler) for SPI2_Idle_IrqHandler
    hc32f460_ll_interrupts_share.o(i.IRQ137_Handler) refers to hc32f460_ll_interrupts_share.o(i.SPI2_Error_IrqHandler) for SPI2_Error_IrqHandler
    hc32f460_ll_interrupts_share.o(i.IRQ137_Handler) refers to hc32f460_ll_interrupts_share.o(i.SPI3_RxFull_IrqHandler) for SPI3_RxFull_IrqHandler
    hc32f460_ll_interrupts_share.o(i.IRQ137_Handler) refers to hc32f460_ll_interrupts_share.o(i.SPI3_TxEmpty_IrqHandler) for SPI3_TxEmpty_IrqHandler
    hc32f460_ll_interrupts_share.o(i.IRQ137_Handler) refers to hc32f460_ll_interrupts_share.o(i.SPI3_Idle_IrqHandler) for SPI3_Idle_IrqHandler
    hc32f460_ll_interrupts_share.o(i.IRQ137_Handler) refers to hc32f460_ll_interrupts_share.o(i.SPI3_Error_IrqHandler) for SPI3_Error_IrqHandler
    hc32f460_ll_interrupts_share.o(i.IRQ137_Handler) refers to hc32f460_ll_interrupts_share.o(i.SPI4_RxFull_IrqHandler) for SPI4_RxFull_IrqHandler
    hc32f460_ll_interrupts_share.o(i.IRQ137_Handler) refers to hc32f460_ll_interrupts_share.o(i.SPI4_TxEmpty_IrqHandler) for SPI4_TxEmpty_IrqHandler
    hc32f460_ll_interrupts_share.o(i.IRQ137_Handler) refers to hc32f460_ll_interrupts_share.o(i.SPI4_Idle_IrqHandler) for SPI4_Idle_IrqHandler
    hc32f460_ll_interrupts_share.o(i.IRQ137_Handler) refers to hc32f460_ll_interrupts_share.o(i.SPI4_Error_IrqHandler) for SPI4_Error_IrqHandler
    hc32f460_ll_interrupts_share.o(i.IRQ138_Handler) refers to hc32f460_ll_interrupts_share.o(i.TMR4_1_GCmpUH_IrqHandler) for TMR4_1_GCmpUH_IrqHandler
    hc32f460_ll_interrupts_share.o(i.IRQ138_Handler) refers to hc32f460_ll_interrupts_share.o(i.TMR4_1_GCmpUL_IrqHandler) for TMR4_1_GCmpUL_IrqHandler
    hc32f460_ll_interrupts_share.o(i.IRQ138_Handler) refers to hc32f460_ll_interrupts_share.o(i.TMR4_1_GCmpVH_IrqHandler) for TMR4_1_GCmpVH_IrqHandler
    hc32f460_ll_interrupts_share.o(i.IRQ138_Handler) refers to hc32f460_ll_interrupts_share.o(i.TMR4_1_GCmpVL_IrqHandler) for TMR4_1_GCmpVL_IrqHandler
    hc32f460_ll_interrupts_share.o(i.IRQ138_Handler) refers to hc32f460_ll_interrupts_share.o(i.TMR4_1_GCmpWH_IrqHandler) for TMR4_1_GCmpWH_IrqHandler
    hc32f460_ll_interrupts_share.o(i.IRQ138_Handler) refers to hc32f460_ll_interrupts_share.o(i.TMR4_1_GCmpWL_IrqHandler) for TMR4_1_GCmpWL_IrqHandler
    hc32f460_ll_interrupts_share.o(i.IRQ138_Handler) refers to hc32f460_ll_interrupts_share.o(i.TMR4_1_GOvf_IrqHandler) for TMR4_1_GOvf_IrqHandler
    hc32f460_ll_interrupts_share.o(i.IRQ138_Handler) refers to hc32f460_ll_interrupts_share.o(i.TMR4_1_GUdf_IrqHandler) for TMR4_1_GUdf_IrqHandler
    hc32f460_ll_interrupts_share.o(i.IRQ138_Handler) refers to hc32f460_ll_interrupts_share.o(i.TMR4_1_ReloadU_IrqHandler) for TMR4_1_ReloadU_IrqHandler
    hc32f460_ll_interrupts_share.o(i.IRQ138_Handler) refers to hc32f460_ll_interrupts_share.o(i.TMR4_1_ReloadV_IrqHandler) for TMR4_1_ReloadV_IrqHandler
    hc32f460_ll_interrupts_share.o(i.IRQ138_Handler) refers to hc32f460_ll_interrupts_share.o(i.TMR4_1_ReloadW_IrqHandler) for TMR4_1_ReloadW_IrqHandler
    hc32f460_ll_interrupts_share.o(i.IRQ138_Handler) refers to hc32f460_ll_interrupts_share.o(i.TMR4_2_GCmpVH_IrqHandler) for TMR4_2_GCmpVH_IrqHandler
    hc32f460_ll_interrupts_share.o(i.IRQ138_Handler) refers to hc32f460_ll_interrupts_share.o(i.TMR4_2_GCmpVL_IrqHandler) for TMR4_2_GCmpVL_IrqHandler
    hc32f460_ll_interrupts_share.o(i.IRQ138_Handler) refers to hc32f460_ll_interrupts_share.o(i.TMR4_2_GCmpWH_IrqHandler) for TMR4_2_GCmpWH_IrqHandler
    hc32f460_ll_interrupts_share.o(i.IRQ138_Handler) refers to hc32f460_ll_interrupts_share.o(i.TMR4_2_GCmpWL_IrqHandler) for TMR4_2_GCmpWL_IrqHandler
    hc32f460_ll_interrupts_share.o(i.IRQ138_Handler) refers to hc32f460_ll_interrupts_share.o(i.TMR4_2_GOvf_IrqHandler) for TMR4_2_GOvf_IrqHandler
    hc32f460_ll_interrupts_share.o(i.IRQ138_Handler) refers to hc32f460_ll_interrupts_share.o(i.TMR4_2_GUdf_IrqHandler) for TMR4_2_GUdf_IrqHandler
    hc32f460_ll_interrupts_share.o(i.IRQ138_Handler) refers to hc32f460_ll_interrupts_share.o(i.TMR4_2_ReloadU_IrqHandler) for TMR4_2_ReloadU_IrqHandler
    hc32f460_ll_interrupts_share.o(i.IRQ138_Handler) refers to hc32f460_ll_interrupts_share.o(i.TMR4_2_ReloadV_IrqHandler) for TMR4_2_ReloadV_IrqHandler
    hc32f460_ll_interrupts_share.o(i.IRQ138_Handler) refers to hc32f460_ll_interrupts_share.o(i.TMR4_2_ReloadW_IrqHandler) for TMR4_2_ReloadW_IrqHandler
    hc32f460_ll_interrupts_share.o(i.IRQ139_Handler) refers to hc32f460_ll_interrupts_share.o(i.TMR4_3_GCmpUH_IrqHandler) for TMR4_3_GCmpUH_IrqHandler
    hc32f460_ll_interrupts_share.o(i.IRQ139_Handler) refers to hc32f460_ll_interrupts_share.o(i.TMR4_3_GCmpUL_IrqHandler) for TMR4_3_GCmpUL_IrqHandler
    hc32f460_ll_interrupts_share.o(i.IRQ139_Handler) refers to hc32f460_ll_interrupts_share.o(i.TMR4_3_GCmpVH_IrqHandler) for TMR4_3_GCmpVH_IrqHandler
    hc32f460_ll_interrupts_share.o(i.IRQ139_Handler) refers to hc32f460_ll_interrupts_share.o(i.TMR4_3_GCmpVL_IrqHandler) for TMR4_3_GCmpVL_IrqHandler
    hc32f460_ll_interrupts_share.o(i.IRQ139_Handler) refers to hc32f460_ll_interrupts_share.o(i.TMR4_3_GCmpWH_IrqHandler) for TMR4_3_GCmpWH_IrqHandler
    hc32f460_ll_interrupts_share.o(i.IRQ139_Handler) refers to hc32f460_ll_interrupts_share.o(i.TMR4_3_GCmpWL_IrqHandler) for TMR4_3_GCmpWL_IrqHandler
    hc32f460_ll_interrupts_share.o(i.IRQ139_Handler) refers to hc32f460_ll_interrupts_share.o(i.TMR4_3_GOvf_IrqHandler) for TMR4_3_GOvf_IrqHandler
    hc32f460_ll_interrupts_share.o(i.IRQ139_Handler) refers to hc32f460_ll_interrupts_share.o(i.TMR4_3_GUdf_IrqHandler) for TMR4_3_GUdf_IrqHandler
    hc32f460_ll_interrupts_share.o(i.IRQ139_Handler) refers to hc32f460_ll_interrupts_share.o(i.TMR4_1_ReloadU_IrqHandler) for TMR4_1_ReloadU_IrqHandler
    hc32f460_ll_interrupts_share.o(i.IRQ139_Handler) refers to hc32f460_ll_interrupts_share.o(i.TMR4_3_ReloadV_IrqHandler) for TMR4_3_ReloadV_IrqHandler
    hc32f460_ll_interrupts_share.o(i.IRQ139_Handler) refers to hc32f460_ll_interrupts_share.o(i.TMR4_3_ReloadW_IrqHandler) for TMR4_3_ReloadW_IrqHandler
    hc32f460_ll_interrupts_share.o(i.IRQ140_Handler) refers to hc32f460_ll_interrupts_share.o(i.EMB_GR0_IrqHandler) for EMB_GR0_IrqHandler
    hc32f460_ll_interrupts_share.o(i.IRQ140_Handler) refers to hc32f460_ll_interrupts_share.o(i.EMB_GR1_IrqHandler) for EMB_GR1_IrqHandler
    hc32f460_ll_interrupts_share.o(i.IRQ140_Handler) refers to hc32f460_ll_interrupts_share.o(i.EMB_GR2_IrqHandler) for EMB_GR2_IrqHandler
    hc32f460_ll_interrupts_share.o(i.IRQ140_Handler) refers to hc32f460_ll_interrupts_share.o(i.EMB_GR3_IrqHandler) for EMB_GR3_IrqHandler
    hc32f460_ll_interrupts_share.o(i.IRQ140_Handler) refers to hc32f460_ll_interrupts_share.o(i.I2S1_Tx_IrqHandler) for I2S1_Tx_IrqHandler
    hc32f460_ll_interrupts_share.o(i.IRQ140_Handler) refers to hc32f460_ll_interrupts_share.o(i.I2S1_Rx_IrqHandler) for I2S1_Rx_IrqHandler
    hc32f460_ll_interrupts_share.o(i.IRQ140_Handler) refers to hc32f460_ll_interrupts_share.o(i.I2S1_Error_IrqHandler) for I2S1_Error_IrqHandler
    hc32f460_ll_interrupts_share.o(i.IRQ140_Handler) refers to hc32f460_ll_interrupts_share.o(i.I2S2_Tx_IrqHandler) for I2S2_Tx_IrqHandler
    hc32f460_ll_interrupts_share.o(i.IRQ140_Handler) refers to hc32f460_ll_interrupts_share.o(i.I2S2_Rx_IrqHandler) for I2S2_Rx_IrqHandler
    hc32f460_ll_interrupts_share.o(i.IRQ140_Handler) refers to hc32f460_ll_interrupts_share.o(i.I2S2_Error_IrqHandler) for I2S2_Error_IrqHandler
    hc32f460_ll_interrupts_share.o(i.IRQ140_Handler) refers to hc32f460_ll_interrupts_share.o(i.I2S3_Tx_IrqHandler) for I2S3_Tx_IrqHandler
    hc32f460_ll_interrupts_share.o(i.IRQ140_Handler) refers to hc32f460_ll_interrupts_share.o(i.I2S3_Rx_IrqHandler) for I2S3_Rx_IrqHandler
    hc32f460_ll_interrupts_share.o(i.IRQ140_Handler) refers to hc32f460_ll_interrupts_share.o(i.I2S3_Error_IrqHandler) for I2S3_Error_IrqHandler
    hc32f460_ll_interrupts_share.o(i.IRQ140_Handler) refers to hc32f460_ll_interrupts_share.o(i.I2S4_Tx_IrqHandler) for I2S4_Tx_IrqHandler
    hc32f460_ll_interrupts_share.o(i.IRQ140_Handler) refers to hc32f460_ll_interrupts_share.o(i.I2S4_Rx_IrqHandler) for I2S4_Rx_IrqHandler
    hc32f460_ll_interrupts_share.o(i.IRQ140_Handler) refers to hc32f460_ll_interrupts_share.o(i.I2S4_Error_IrqHandler) for I2S4_Error_IrqHandler
    hc32f460_ll_interrupts_share.o(i.IRQ141_Handler) refers to hc32f460_ll_interrupts_share.o(i.I2C1_RxFull_IrqHandler) for I2C1_RxFull_IrqHandler
    hc32f460_ll_interrupts_share.o(i.IRQ141_Handler) refers to hc32f460_ll_interrupts_share.o(i.I2C1_TxEmpty_IrqHandler) for I2C1_TxEmpty_IrqHandler
    hc32f460_ll_interrupts_share.o(i.IRQ141_Handler) refers to hc32f460_ll_interrupts_share.o(i.I2C1_TxComplete_IrqHandler) for I2C1_TxComplete_IrqHandler
    hc32f460_ll_interrupts_share.o(i.IRQ141_Handler) refers to hc32f460_ll_interrupts_share.o(i.I2C1_EE_IrqHandler) for I2C1_EE_IrqHandler
    hc32f460_ll_interrupts_share.o(i.IRQ141_Handler) refers to hc32f460_ll_interrupts_share.o(i.I2C2_RxFull_IrqHandler) for I2C2_RxFull_IrqHandler
    hc32f460_ll_interrupts_share.o(i.IRQ141_Handler) refers to hc32f460_ll_interrupts_share.o(i.I2C2_TxEmpty_IrqHandler) for I2C2_TxEmpty_IrqHandler
    hc32f460_ll_interrupts_share.o(i.IRQ141_Handler) refers to hc32f460_ll_interrupts_share.o(i.I2C2_TxComplete_IrqHandler) for I2C2_TxComplete_IrqHandler
    hc32f460_ll_interrupts_share.o(i.IRQ141_Handler) refers to hc32f460_ll_interrupts_share.o(i.I2C2_EE_IrqHandler) for I2C2_EE_IrqHandler
    hc32f460_ll_interrupts_share.o(i.IRQ141_Handler) refers to hc32f460_ll_interrupts_share.o(i.I2C3_RxFull_IrqHandler) for I2C3_RxFull_IrqHandler
    hc32f460_ll_interrupts_share.o(i.IRQ141_Handler) refers to hc32f460_ll_interrupts_share.o(i.I2C3_TxEmpty_IrqHandler) for I2C3_TxEmpty_IrqHandler
    hc32f460_ll_interrupts_share.o(i.IRQ141_Handler) refers to hc32f460_ll_interrupts_share.o(i.I2C3_TxComplete_IrqHandler) for I2C3_TxComplete_IrqHandler
    hc32f460_ll_interrupts_share.o(i.IRQ141_Handler) refers to hc32f460_ll_interrupts_share.o(i.I2C3_EE_IrqHandler) for I2C3_EE_IrqHandler
    hc32f460_ll_interrupts_share.o(i.IRQ141_Handler) refers to hc32f460_ll_interrupts_share.o(i.PWC_LVD1_IrqHandler) for PWC_LVD1_IrqHandler
    hc32f460_ll_interrupts_share.o(i.IRQ141_Handler) refers to hc32f460_ll_interrupts_share.o(i.PWC_LVD2_IrqHandler) for PWC_LVD2_IrqHandler
    hc32f460_ll_interrupts_share.o(i.IRQ141_Handler) refers to hc32f460_ll_interrupts_share.o(i.FCM_Error_IrqHandler) for FCM_Error_IrqHandler
    hc32f460_ll_interrupts_share.o(i.IRQ141_Handler) refers to hc32f460_ll_interrupts_share.o(i.FCM_End_IrqHandler) for FCM_End_IrqHandler
    hc32f460_ll_interrupts_share.o(i.IRQ141_Handler) refers to hc32f460_ll_interrupts_share.o(i.FCM_Ovf_IrqHandler) for FCM_Ovf_IrqHandler
    hc32f460_ll_interrupts_share.o(i.IRQ141_Handler) refers to hc32f460_ll_interrupts_share.o(i.WDT_IrqHandler) for WDT_IrqHandler
    hc32f460_ll_interrupts_share.o(i.IRQ142_Handler) refers to hc32f460_ll_interrupts_share.o(i.ADC1_SeqA_IrqHandler) for ADC1_SeqA_IrqHandler
    hc32f460_ll_interrupts_share.o(i.IRQ142_Handler) refers to hc32f460_ll_interrupts_share.o(i.ADC1_SeqB_IrqHandler) for ADC1_SeqB_IrqHandler
    hc32f460_ll_interrupts_share.o(i.IRQ142_Handler) refers to hc32f460_ll_interrupts_share.o(i.ADC1_ChCmp_IrqHandler) for ADC1_ChCmp_IrqHandler
    hc32f460_ll_interrupts_share.o(i.IRQ142_Handler) refers to hc32f460_ll_interrupts_share.o(i.ADC1_SeqCmp_IrqHandler) for ADC1_SeqCmp_IrqHandler
    hc32f460_ll_interrupts_share.o(i.IRQ142_Handler) refers to hc32f460_ll_interrupts_share.o(i.ADC2_SeqA_IrqHandler) for ADC2_SeqA_IrqHandler
    hc32f460_ll_interrupts_share.o(i.IRQ142_Handler) refers to hc32f460_ll_interrupts_share.o(i.ADC2_SeqB_IrqHandler) for ADC2_SeqB_IrqHandler
    hc32f460_ll_interrupts_share.o(i.IRQ142_Handler) refers to hc32f460_ll_interrupts_share.o(i.ADC2_ChCmp_IrqHandler) for ADC2_ChCmp_IrqHandler
    hc32f460_ll_interrupts_share.o(i.IRQ142_Handler) refers to hc32f460_ll_interrupts_share.o(i.ADC2_SeqCmp_IrqHandler) for ADC2_SeqCmp_IrqHandler
    hc32f460_ll_interrupts_share.o(i.IRQ143_Handler) refers to hc32f460_ll_interrupts_share.o(i.SDIOC1_IrqHandler) for SDIOC1_IrqHandler
    hc32f460_ll_interrupts_share.o(i.IRQ143_Handler) refers to hc32f460_ll_interrupts_share.o(i.SDIOC2_IrqHandler) for SDIOC2_IrqHandler
    hc32f460_ll_interrupts_share.o(i.IRQ143_Handler) refers to hc32f460_ll_interrupts_share.o(i.CAN_IrqHandler) for CAN_IrqHandler
    hc32_ll_tmra.o(i.TMRA_ClearStatus) refers to hc32_ll_utility.o(i.DDL_AssertHandler) for DDL_AssertHandler
    hc32_ll_tmra.o(i.TMRA_CompareBufCmd) refers to hc32_ll_utility.o(i.DDL_AssertHandler) for DDL_AssertHandler
    hc32_ll_tmra.o(i.TMRA_DeInit) refers to hc32_ll_utility.o(i.DDL_AssertHandler) for DDL_AssertHandler
    hc32_ll_tmra.o(i.TMRA_EventCmd) refers to hc32_ll_utility.o(i.DDL_AssertHandler) for DDL_AssertHandler
    hc32_ll_tmra.o(i.TMRA_FilterCmd) refers to hc32_ll_utility.o(i.DDL_AssertHandler) for DDL_AssertHandler
    hc32_ll_tmra.o(i.TMRA_GetCompareValue) refers to hc32_ll_utility.o(i.DDL_AssertHandler) for DDL_AssertHandler
    hc32_ll_tmra.o(i.TMRA_GetCountDir) refers to hc32_ll_utility.o(i.DDL_AssertHandler) for DDL_AssertHandler
    hc32_ll_tmra.o(i.TMRA_GetCountValue) refers to hc32_ll_utility.o(i.DDL_AssertHandler) for DDL_AssertHandler
    hc32_ll_tmra.o(i.TMRA_GetPeriodValue) refers to hc32_ll_utility.o(i.DDL_AssertHandler) for DDL_AssertHandler
    hc32_ll_tmra.o(i.TMRA_GetStatus) refers to hc32_ll_utility.o(i.DDL_AssertHandler) for DDL_AssertHandler
    hc32_ll_tmra.o(i.TMRA_HWCaptureCondCmd) refers to hc32_ll_utility.o(i.DDL_AssertHandler) for DDL_AssertHandler
    hc32_ll_tmra.o(i.TMRA_HWClearCondCmd) refers to hc32_ll_utility.o(i.DDL_AssertHandler) for DDL_AssertHandler
    hc32_ll_tmra.o(i.TMRA_HWCountDownCondCmd) refers to hc32_ll_utility.o(i.DDL_AssertHandler) for DDL_AssertHandler
    hc32_ll_tmra.o(i.TMRA_HWCountUpCondCmd) refers to hc32_ll_utility.o(i.DDL_AssertHandler) for DDL_AssertHandler
    hc32_ll_tmra.o(i.TMRA_HWStartCondCmd) refers to hc32_ll_utility.o(i.DDL_AssertHandler) for DDL_AssertHandler
    hc32_ll_tmra.o(i.TMRA_HWStopCondCmd) refers to hc32_ll_utility.o(i.DDL_AssertHandler) for DDL_AssertHandler
    hc32_ll_tmra.o(i.TMRA_Init) refers to hc32_ll_utility.o(i.DDL_AssertHandler) for DDL_AssertHandler
    hc32_ll_tmra.o(i.TMRA_Init) refers to hc32_ll_tmra.o(i.TMRA_SetPeriodValue) for TMRA_SetPeriodValue
    hc32_ll_tmra.o(i.TMRA_IntCmd) refers to hc32_ll_utility.o(i.DDL_AssertHandler) for DDL_AssertHandler
    hc32_ll_tmra.o(i.TMRA_PWM_Init) refers to hc32_ll_utility.o(i.DDL_AssertHandler) for DDL_AssertHandler
    hc32_ll_tmra.o(i.TMRA_PWM_OutputCmd) refers to hc32_ll_utility.o(i.DDL_AssertHandler) for DDL_AssertHandler
    hc32_ll_tmra.o(i.TMRA_PWM_SetForcePolarity) refers to hc32_ll_utility.o(i.DDL_AssertHandler) for DDL_AssertHandler
    hc32_ll_tmra.o(i.TMRA_PWM_SetPolarity) refers to hc32_ll_utility.o(i.DDL_AssertHandler) for DDL_AssertHandler
    hc32_ll_tmra.o(i.TMRA_SetClockDiv) refers to hc32_ll_utility.o(i.DDL_AssertHandler) for DDL_AssertHandler
    hc32_ll_tmra.o(i.TMRA_SetCompareBufCond) refers to hc32_ll_utility.o(i.DDL_AssertHandler) for DDL_AssertHandler
    hc32_ll_tmra.o(i.TMRA_SetCompareValue) refers to hc32_ll_utility.o(i.DDL_AssertHandler) for DDL_AssertHandler
    hc32_ll_tmra.o(i.TMRA_SetCountDir) refers to hc32_ll_utility.o(i.DDL_AssertHandler) for DDL_AssertHandler
    hc32_ll_tmra.o(i.TMRA_SetCountMode) refers to hc32_ll_utility.o(i.DDL_AssertHandler) for DDL_AssertHandler
    hc32_ll_tmra.o(i.TMRA_SetCountValue) refers to hc32_ll_utility.o(i.DDL_AssertHandler) for DDL_AssertHandler
    hc32_ll_tmra.o(i.TMRA_SetFilterClockDiv) refers to hc32_ll_utility.o(i.DDL_AssertHandler) for DDL_AssertHandler
    hc32_ll_tmra.o(i.TMRA_SetFunc) refers to hc32_ll_utility.o(i.DDL_AssertHandler) for DDL_AssertHandler
    hc32_ll_tmra.o(i.TMRA_SetPeriodValue) refers to hc32_ll_utility.o(i.DDL_AssertHandler) for DDL_AssertHandler
    hc32_ll_tmra.o(i.TMRA_Start) refers to hc32_ll_utility.o(i.DDL_AssertHandler) for DDL_AssertHandler
    hc32_ll_tmra.o(i.TMRA_Stop) refers to hc32_ll_utility.o(i.DDL_AssertHandler) for DDL_AssertHandler
    hc32_ll_tmra.o(i.TMRA_SyncStartCmd) refers to hc32_ll_utility.o(i.DDL_AssertHandler) for DDL_AssertHandler
    hc32_ll_spi.o(i.SPI_ClearStatus) refers to hc32_ll_utility.o(i.DDL_AssertHandler) for DDL_AssertHandler
    hc32_ll_spi.o(i.SPI_Cmd) refers to hc32_ll_utility.o(i.DDL_AssertHandler) for DDL_AssertHandler
    hc32_ll_spi.o(i.SPI_DeInit) refers to hc32_ll_utility.o(i.DDL_AssertHandler) for DDL_AssertHandler
    hc32_ll_spi.o(i.SPI_DelayTimeConfig) refers to hc32_ll_utility.o(i.DDL_AssertHandler) for DDL_AssertHandler
    hc32_ll_spi.o(i.SPI_GetStatus) refers to hc32_ll_utility.o(i.DDL_AssertHandler) for DDL_AssertHandler
    hc32_ll_spi.o(i.SPI_Init) refers to hc32_ll_utility.o(i.DDL_AssertHandler) for DDL_AssertHandler
    hc32_ll_spi.o(i.SPI_IntCmd) refers to hc32_ll_utility.o(i.DDL_AssertHandler) for DDL_AssertHandler
    hc32_ll_spi.o(i.SPI_ParityCheckCmd) refers to hc32_ll_utility.o(i.DDL_AssertHandler) for DDL_AssertHandler
    hc32_ll_spi.o(i.SPI_ReadData) refers to hc32_ll_utility.o(i.DDL_AssertHandler) for DDL_AssertHandler
    hc32_ll_spi.o(i.SPI_Receive) refers to hc32_ll_spi.o(i.SPI_TxRx) for SPI_TxRx
    hc32_ll_spi.o(i.SPI_SSPinSelect) refers to hc32_ll_utility.o(i.DDL_AssertHandler) for DDL_AssertHandler
    hc32_ll_spi.o(i.SPI_SetLoopbackMode) refers to hc32_ll_utility.o(i.DDL_AssertHandler) for DDL_AssertHandler
    hc32_ll_spi.o(i.SPI_SetReadBuf) refers to hc32_ll_utility.o(i.DDL_AssertHandler) for DDL_AssertHandler
    hc32_ll_spi.o(i.SPI_SetSSValidLevel) refers to hc32_ll_utility.o(i.DDL_AssertHandler) for DDL_AssertHandler
    hc32_ll_spi.o(i.SPI_SetSckPhase) refers to hc32_ll_utility.o(i.DDL_AssertHandler) for DDL_AssertHandler
    hc32_ll_spi.o(i.SPI_SetSckPolarity) refers to hc32_ll_utility.o(i.DDL_AssertHandler) for DDL_AssertHandler
    hc32_ll_spi.o(i.SPI_Trans) refers to hc32_ll_spi.o(i.SPI_Tx) for SPI_Tx
    hc32_ll_spi.o(i.SPI_Trans) refers to hc32_ll_spi.o(i.SPI_TxRx) for SPI_TxRx
    hc32_ll_spi.o(i.SPI_TransReceive) refers to hc32_ll_spi.o(i.SPI_TxRx) for SPI_TxRx
    hc32_ll_spi.o(i.SPI_Tx) refers to hc32_ll_utility.o(i.DDL_AssertHandler) for DDL_AssertHandler
    hc32_ll_spi.o(i.SPI_Tx) refers to hc32_ll_spi.o(i.SPI_WaitStatus) for SPI_WaitStatus
    hc32_ll_spi.o(i.SPI_TxRx) refers to hc32_ll_utility.o(i.DDL_AssertHandler) for DDL_AssertHandler
    hc32_ll_spi.o(i.SPI_TxRx) refers to hc32_ll_spi.o(i.SPI_WaitStatus) for SPI_WaitStatus
    hc32_ll_spi.o(i.SPI_WriteData) refers to hc32_ll_utility.o(i.DDL_AssertHandler) for DDL_AssertHandler
    mp6602.o(i.App_SPIxCfg) refers to hc32_ll_fcg.o(i.FCG_Fcg1PeriphClockCmd) for FCG_Fcg1PeriphClockCmd
    mp6602.o(i.App_SPIxCfg) refers to hc32_ll_spi.o(i.SPI_StructInit) for SPI_StructInit
    mp6602.o(i.App_SPIxCfg) refers to hc32_ll_spi.o(i.SPI_Init) for SPI_Init
    mp6602.o(i.App_SPIxCfg) refers to hc32_ll_spi.o(i.SPI_DelayStructInit) for SPI_DelayStructInit
    mp6602.o(i.App_SPIxCfg) refers to hc32_ll_spi.o(i.SPI_DelayTimeConfig) for SPI_DelayTimeConfig
    mp6602.o(i.App_SPIxCfg) refers to hc32_ll_spi.o(i.SPI_SetLoopbackMode) for SPI_SetLoopbackMode
    mp6602.o(i.App_SPIxCfg) refers to hc32_ll_spi.o(i.SPI_ParityCheckCmd) for SPI_ParityCheckCmd
    mp6602.o(i.App_SPIxCfg) refers to hc32_ll_spi.o(i.SPI_SSPinSelect) for SPI_SSPinSelect
    mp6602.o(i.App_SPIxCfg) refers to hc32_ll_spi.o(i.SPI_SetSSValidLevel) for SPI_SetSSValidLevel
    mp6602.o(i.App_SPIxCfg) refers to hc32_ll_spi.o(i.SPI_Cmd) for SPI_Cmd
    mp6602.o(i.MP6602_ReadFaults) refers to mp6602.o(i.MP6602_ReadRegister) for MP6602_ReadRegister
    mp6602.o(i.MP6602_ReadRegister) refers to hc32_ll_gpio.o(i.GPIO_ResetPins) for GPIO_ResetPins
    mp6602.o(i.MP6602_ReadRegister) refers to hc32_ll_utility.o(i.DDL_DelayUS) for DDL_DelayUS
    mp6602.o(i.MP6602_ReadRegister) refers to hc32_ll_spi.o(i.SPI_Trans) for SPI_Trans
    mp6602.o(i.MP6602_ReadRegister) refers to hc32_ll_spi.o(i.SPI_Receive) for SPI_Receive
    mp6602.o(i.MP6602_ReadRegister) refers to hc32_ll_gpio.o(i.GPIO_SetPins) for GPIO_SetPins
    mp6602.o(i.MP6602_ReadRegister) refers to system_hc32f460.o(.bss.noinit) for SystemCoreClock
    mp6602.o(i.MP6602_ReadStepPosition) refers to mp6602.o(i.MP6602_ReadRegister) for MP6602_ReadRegister
    mp6602.o(i.MP6602_SetMicrostep) refers to mp6602.o(i.MP6602_WriteRegister) for MP6602_WriteRegister
    mp6602.o(i.MP6602_WriteRegister) refers to hc32_ll_gpio.o(i.GPIO_ResetPins) for GPIO_ResetPins
    mp6602.o(i.MP6602_WriteRegister) refers to hc32_ll_utility.o(i.DDL_DelayUS) for DDL_DelayUS
    mp6602.o(i.MP6602_WriteRegister) refers to hc32_ll_spi.o(i.SPI_Trans) for SPI_Trans
    mp6602.o(i.MP6602_WriteRegister) refers to hc32_ll_gpio.o(i.GPIO_SetPins) for GPIO_SetPins
    mp6602.o(i.MP6602_WriteRegister) refers to system_hc32f460.o(.bss.noinit) for SystemCoreClock
    mp6602.o(i.MP6602_init) refers to hc32_ll_gpio.o(i.GPIO_SetPins) for GPIO_SetPins
    expf.o(i.__softfp_expf) refers (Special) to iusefp.o(.text) for __I$use$fp
    expf.o(i.__softfp_expf) refers to expf.o(i.expf) for expf
    expf.o(i.expf) refers (Special) to iusefp.o(.text) for __I$use$fp
    expf.o(i.expf) refers to fmul.o(.text) for __aeabi_fmul
    expf.o(i.expf) refers to frnd.o(.text) for _frnd
    expf.o(i.expf) refers to ffixi.o(.text) for __aeabi_f2iz
    expf.o(i.expf) refers to fadd.o(.text) for __aeabi_frsub
    expf.o(i.expf) refers to fscalb.o(.text) for __ARM_scalbnf
    expf.o(i.expf) refers to errno.o(i.__set_errno) for __set_errno
    expf.o(i.expf) refers to funder.o(i.__mathlib_flt_underflow) for __mathlib_flt_underflow
    expf.o(i.expf) refers to funder.o(i.__mathlib_flt_infnan) for __mathlib_flt_infnan
    expf.o(i.expf) refers to funder.o(i.__mathlib_flt_overflow) for __mathlib_flt_overflow
    expf.o(i.expf) refers to fpclassifyf.o(i.__ARM_fpclassifyf) for __ARM_fpclassifyf
    expf.o(i.expf) refers to expf.o(.constdata) for .constdata
    expf.o(.constdata) refers (Special) to iusefp.o(.text) for __I$use$fp
    expf_x.o(i.____softfp_expf$lsc) refers (Special) to iusefp.o(.text) for __I$use$fp
    expf_x.o(i.____softfp_expf$lsc) refers to expf_x.o(i.__expf$lsc) for __expf$lsc
    expf_x.o(i.__expf$lsc) refers (Special) to iusefp.o(.text) for __I$use$fp
    expf_x.o(i.__expf$lsc) refers to fmul.o(.text) for __aeabi_fmul
    expf_x.o(i.__expf$lsc) refers to frnd.o(.text) for _frnd
    expf_x.o(i.__expf$lsc) refers to ffixi.o(.text) for __aeabi_f2iz
    expf_x.o(i.__expf$lsc) refers to fadd.o(.text) for __aeabi_frsub
    expf_x.o(i.__expf$lsc) refers to fscalb.o(.text) for __ARM_scalbnf
    expf_x.o(i.__expf$lsc) refers to errno.o(i.__set_errno) for __set_errno
    expf_x.o(i.__expf$lsc) refers to funder.o(i.__mathlib_flt_infnan) for __mathlib_flt_infnan
    expf_x.o(i.__expf$lsc) refers to fpstat.o(.text) for __ieee_status
    expf_x.o(i.__expf$lsc) refers to expf_x.o(.constdata) for .constdata
    expf_x.o(.constdata) refers (Special) to iusefp.o(.text) for __I$use$fp
    pow.o(i.__softfp_pow) refers (Special) to iusefp.o(.text) for __I$use$fp
    pow.o(i.__softfp_pow) refers to pow.o(i.pow) for pow
    pow.o(i.pow) refers (Special) to iusefp.o(.text) for __I$use$fp
    pow.o(i.pow) refers to dunder.o(i.__mathlib_dbl_infnan2) for __mathlib_dbl_infnan2
    pow.o(i.pow) refers to errno.o(i.__set_errno) for __set_errno
    pow.o(i.pow) refers to dunder.o(i.__mathlib_dbl_divzero) for __mathlib_dbl_divzero
    pow.o(i.pow) refers to ddiv.o(.text) for __aeabi_ddiv
    pow.o(i.pow) refers to sqrt.o(i.sqrt) for sqrt
    pow.o(i.pow) refers to dmul.o(.text) for __aeabi_dmul
    pow.o(i.pow) refers to dflti.o(.text) for __aeabi_i2d
    pow.o(i.pow) refers to dunder.o(i.__mathlib_dbl_invalid) for __mathlib_dbl_invalid
    pow.o(i.pow) refers to dunder.o(i.__mathlib_dbl_overflow) for __mathlib_dbl_overflow
    pow.o(i.pow) refers to dunder.o(i.__mathlib_dbl_underflow) for __mathlib_dbl_underflow
    pow.o(i.pow) refers to dadd.o(.text) for __aeabi_dsub
    pow.o(i.pow) refers to dscalb.o(.text) for __ARM_scalbn
    pow.o(i.pow) refers to qnan.o(.constdata) for __mathlib_zero
    pow.o(i.pow) refers to poly.o(i.__kernel_poly) for __kernel_poly
    pow.o(i.pow) refers to cdrcmple.o(.text) for __aeabi_cdrcmple
    pow.o(i.pow) refers to pow.o(.constdata) for .constdata
    pow.o(i.pow) refers to fpclassify.o(i.__ARM_fpclassify) for __ARM_fpclassify
    pow.o(.constdata) refers (Special) to iusefp.o(.text) for __I$use$fp
    pow_x.o(i.____softfp_pow$lsc) refers (Special) to iusefp.o(.text) for __I$use$fp
    pow_x.o(i.____softfp_pow$lsc) refers to pow_x.o(i.__pow$lsc) for __pow$lsc
    pow_x.o(i.__pow$lsc) refers (Special) to iusefp.o(.text) for __I$use$fp
    pow_x.o(i.__pow$lsc) refers to dunder.o(i.__mathlib_dbl_infnan2) for __mathlib_dbl_infnan2
    pow_x.o(i.__pow$lsc) refers to errno.o(i.__set_errno) for __set_errno
    pow_x.o(i.__pow$lsc) refers to ddiv.o(.text) for __aeabi_ddiv
    pow_x.o(i.__pow$lsc) refers to sqrt.o(i.sqrt) for sqrt
    pow_x.o(i.__pow$lsc) refers to dmul.o(.text) for __aeabi_dmul
    pow_x.o(i.__pow$lsc) refers to dflti.o(.text) for __aeabi_i2d
    pow_x.o(i.__pow$lsc) refers to dadd.o(.text) for __aeabi_dsub
    pow_x.o(i.__pow$lsc) refers to dscalb.o(.text) for __ARM_scalbn
    pow_x.o(i.__pow$lsc) refers to qnan.o(.constdata) for __mathlib_zero
    pow_x.o(i.__pow$lsc) refers to poly.o(i.__kernel_poly) for __kernel_poly
    pow_x.o(i.__pow$lsc) refers to cdrcmple.o(.text) for __aeabi_cdrcmple
    pow_x.o(i.__pow$lsc) refers to pow_x.o(.constdata) for .constdata
    pow_x.o(.constdata) refers (Special) to iusefp.o(.text) for __I$use$fp
    entry.o(.ARM.Collect$$$$00000000) refers (Special) to entry10a.o(.ARM.Collect$$$$0000000D) for __rt_final_cpp
    entry.o(.ARM.Collect$$$$00000000) refers (Special) to entry11a.o(.ARM.Collect$$$$0000000F) for __rt_final_exit
    entry.o(.ARM.Collect$$$$00000000) refers (Special) to entry7b.o(.ARM.Collect$$$$00000008) for _main_clock
    entry.o(.ARM.Collect$$$$00000000) refers (Special) to entry8b.o(.ARM.Collect$$$$0000000A) for _main_cpp_init
    entry.o(.ARM.Collect$$$$00000000) refers (Special) to entry9a.o(.ARM.Collect$$$$0000000B) for _main_init
    entry.o(.ARM.Collect$$$$00000000) refers (Special) to entry5.o(.ARM.Collect$$$$00000004) for _main_scatterload
    entry.o(.ARM.Collect$$$$00000000) refers (Special) to entry2.o(.ARM.Collect$$$$00000001) for _main_stk
    fadd.o(.text) refers (Special) to iusefp.o(.text) for __I$use$fp
    fadd.o(.text) refers to fepilogue.o(.text) for _float_epilogue
    fmul.o(.text) refers (Special) to iusefp.o(.text) for __I$use$fp
    fdiv.o(.text) refers (Special) to iusefp.o(.text) for __I$use$fp
    fdiv.o(.text) refers to fepilogue.o(.text) for _float_round
    dmul.o(.text) refers (Special) to iusefp.o(.text) for __I$use$fp
    dmul.o(.text) refers to depilogue.o(.text) for _double_epilogue
    fflti.o(.text) refers (Special) to iusefp.o(.text) for __I$use$fp
    fflti.o(.text) refers to fepilogue.o(.text) for _float_epilogue
    ffixi.o(.text) refers (Special) to iusefp.o(.text) for __I$use$fp
    ffixui.o(.text) refers (Special) to iusefp.o(.text) for __I$use$fp
    dfixui.o(.text) refers (Special) to iusefp.o(.text) for __I$use$fp
    dfixui.o(.text) refers to llushr.o(.text) for __aeabi_llsr
    f2d.o(.text) refers (Special) to iusefp.o(.text) for __I$use$fp
    d2f.o(.text) refers (Special) to iusefp.o(.text) for __I$use$fp
    d2f.o(.text) refers to fepilogue.o(.text) for _float_round
    cfcmple.o(.text) refers (Special) to iusefp.o(.text) for __I$use$fp
    dunder.o(i.__mathlib_dbl_divzero) refers to ddiv.o(.text) for __aeabi_ddiv
    dunder.o(i.__mathlib_dbl_infnan) refers to dscalb.o(.text) for __ARM_scalbn
    dunder.o(i.__mathlib_dbl_infnan2) refers to dadd.o(.text) for __aeabi_dadd
    dunder.o(i.__mathlib_dbl_invalid) refers to ddiv.o(.text) for __aeabi_ddiv
    dunder.o(i.__mathlib_dbl_overflow) refers to dscalb.o(.text) for __ARM_scalbn
    dunder.o(i.__mathlib_dbl_posinfnan) refers to dmul.o(.text) for __aeabi_dmul
    dunder.o(i.__mathlib_dbl_underflow) refers to dscalb.o(.text) for __ARM_scalbn
    fpclassify.o(i.__ARM_fpclassify) refers (Special) to iusefp.o(.text) for __I$use$fp
    fpclassifyf.o(i.__ARM_fpclassifyf) refers (Special) to iusefp.o(.text) for __I$use$fp
    funder.o(i.__mathlib_flt_divzero) refers to fdiv.o(.text) for __aeabi_fdiv
    funder.o(i.__mathlib_flt_infnan) refers to fscalb.o(.text) for __ARM_scalbnf
    funder.o(i.__mathlib_flt_infnan2) refers to fadd.o(.text) for __aeabi_fadd
    funder.o(i.__mathlib_flt_invalid) refers to fdiv.o(.text) for __aeabi_fdiv
    funder.o(i.__mathlib_flt_overflow) refers to fscalb.o(.text) for __ARM_scalbnf
    funder.o(i.__mathlib_flt_posinfnan) refers to fmul.o(.text) for __aeabi_fmul
    funder.o(i.__mathlib_flt_underflow) refers to fscalb.o(.text) for __ARM_scalbnf
    poly.o(i.__kernel_poly) refers (Special) to iusefp.o(.text) for __I$use$fp
    poly.o(i.__kernel_poly) refers to dmul.o(.text) for __aeabi_dmul
    poly.o(i.__kernel_poly) refers to dadd.o(.text) for __aeabi_dadd
    qnan.o(.constdata) refers (Special) to iusefp.o(.text) for __I$use$fp
    sqrt.o(i.__softfp_sqrt) refers (Special) to iusefp.o(.text) for __I$use$fp
    sqrt.o(i.__softfp_sqrt) refers to dsqrt.o(.text) for _dsqrt
    sqrt.o(i.__softfp_sqrt) refers to errno.o(i.__set_errno) for __set_errno
    sqrt.o(i.sqrt) refers (Special) to iusefp.o(.text) for __I$use$fp
    sqrt.o(i.sqrt) refers to dsqrt.o(.text) for _dsqrt
    sqrt.o(i.sqrt) refers to errno.o(i.__set_errno) for __set_errno
    sqrt_x.o(i.____softfp_sqrt$lsc) refers (Special) to iusefp.o(.text) for __I$use$fp
    sqrt_x.o(i.____softfp_sqrt$lsc) refers to cdcmple.o(.text) for __aeabi_cdcmple
    sqrt_x.o(i.____softfp_sqrt$lsc) refers to errno.o(i.__set_errno) for __set_errno
    sqrt_x.o(i.____softfp_sqrt$lsc) refers to dsqrt.o(.text) for _dsqrt
    sqrt_x.o(i.__sqrt$lsc) refers (Special) to iusefp.o(.text) for __I$use$fp
    sqrt_x.o(i.__sqrt$lsc) refers to cdcmple.o(.text) for __aeabi_cdcmple
    sqrt_x.o(i.__sqrt$lsc) refers to errno.o(i.__set_errno) for __set_errno
    sqrt_x.o(i.__sqrt$lsc) refers to dsqrt.o(.text) for _dsqrt
    entry2.o(.ARM.Collect$$$$00000001) refers to entry2.o(.ARM.Collect$$$$00002712) for __lit__00000000
    entry2.o(.ARM.Collect$$$$00002712) refers to startup_hc32f460.o(STACK) for __initial_sp
    entry2.o(__vectab_stack_and_reset_area) refers to startup_hc32f460.o(STACK) for __initial_sp
    entry2.o(__vectab_stack_and_reset_area) refers to entry.o(.ARM.Collect$$$$00000000) for __main
    entry5.o(.ARM.Collect$$$$00000004) refers to init.o(.text) for __scatterload
    entry9a.o(.ARM.Collect$$$$0000000B) refers to main.o(i.main) for main
    entry9b.o(.ARM.Collect$$$$0000000C) refers to main.o(i.main) for main
    errno.o(i.__aeabi_errno_addr) refers to errno.o(.data) for .data
    errno.o(i.__read_errno) refers to errno.o(.data) for .data
    errno.o(i.__set_errno) refers to errno.o(.data) for .data
    frnd.o(.text) refers to fepilogue.o(.text) for _float_round
    depilogue.o(.text) refers to llshl.o(.text) for __aeabi_llsl
    depilogue.o(.text) refers to llushr.o(.text) for __aeabi_llsr
    dadd.o(.text) refers to llshl.o(.text) for __aeabi_llsl
    dadd.o(.text) refers to llsshr.o(.text) for __aeabi_lasr
    dadd.o(.text) refers to depilogue.o(.text) for _double_epilogue
    ddiv.o(.text) refers to depilogue.o(.text) for _double_round
    dflti.o(.text) refers to depilogue.o(.text) for _double_epilogue
    init.o(.text) refers to entry5.o(.ARM.Collect$$$$00000004) for __main_after_scatterload
    dsqrt.o(.text) refers to llushr.o(.text) for __aeabi_llsr
    dsqrt.o(.text) refers to depilogue.o(.text) for _double_round


==============================================================================

Removing Unused input sections from the image.

    Removing startup_hc32f460.o(HEAP), (8192 bytes).
    Removing system_hc32f460.o(.rev16_text), (4 bytes).
    Removing system_hc32f460.o(.revsh_text), (4 bytes).
    Removing system_hc32f460.o(.rrx_text), (6 bytes).
    Removing main.o(.rev16_text), (4 bytes).
    Removing main.o(.revsh_text), (4 bytes).
    Removing main.o(.rrx_text), (6 bytes).
    Removing main.o(.data), (4 bytes).
    Removing control_step.o(.rev16_text), (4 bytes).
    Removing control_step.o(.revsh_text), (4 bytes).
    Removing control_step.o(.rrx_text), (6 bytes).
    Removing control_step.o(i.Calcspeed_s), (700 bytes).
    Removing control_step.o(i.Speed_Decision_C), (16 bytes).
    Removing control_step.o(i.Stepper_Move_C), (164 bytes).
    Removing control_step.o(i.Stepper_stop), (12 bytes).
    Removing tim.o(.rev16_text), (4 bytes).
    Removing tim.o(.revsh_text), (4 bytes).
    Removing tim.o(.rrx_text), (6 bytes).
    Removing hc32_ll.o(.rev16_text), (4 bytes).
    Removing hc32_ll.o(.revsh_text), (4 bytes).
    Removing hc32_ll.o(.rrx_text), (6 bytes).
    Removing hc32_ll_icg.o(.rev16_text), (4 bytes).
    Removing hc32_ll_icg.o(.revsh_text), (4 bytes).
    Removing hc32_ll_icg.o(.rrx_text), (6 bytes).
    Removing hc32_ll_utility.o(.rev16_text), (4 bytes).
    Removing hc32_ll_utility.o(.revsh_text), (4 bytes).
    Removing hc32_ll_utility.o(.rrx_text), (6 bytes).
    Removing hc32_ll_utility.o(i.DDL_DelayMS), (64 bytes).
    Removing hc32_ll_utility.o(i.SysTick_Delay), (76 bytes).
    Removing hc32_ll_utility.o(i.SysTick_GetTick), (12 bytes).
    Removing hc32_ll_utility.o(i.SysTick_IncTick), (24 bytes).
    Removing hc32_ll_utility.o(i.SysTick_Init), (144 bytes).
    Removing hc32_ll_utility.o(i.SysTick_Resume), (18 bytes).
    Removing hc32_ll_utility.o(i.SysTick_Suspend), (18 bytes).
    Removing hc32_ll_utility.o(.data), (8 bytes).
    Removing hc32_ll_pwc.o(.rev16_text), (4 bytes).
    Removing hc32_ll_pwc.o(.revsh_text), (4 bytes).
    Removing hc32_ll_pwc.o(.rrx_text), (6 bytes).
    Removing hc32_ll_pwc.o(RAMCODE), (128 bytes).
    Removing hc32_ll_pwc.o(i.PWC_ClockBackup), (220 bytes).
    Removing hc32_ll_pwc.o(i.PWC_ClockRecover), (136 bytes).
    Removing hc32_ll_pwc.o(i.PWC_HighPerformanceToHighSpeed), (100 bytes).
    Removing hc32_ll_pwc.o(i.PWC_HighPerformanceToLowSpeed), (220 bytes).
    Removing hc32_ll_pwc.o(i.PWC_HighSpeedToLowSpeed), (220 bytes).
    Removing hc32_ll_pwc.o(i.PWC_LDO_Cmd), (152 bytes).
    Removing hc32_ll_pwc.o(i.PWC_LVD_ClearStatus), (104 bytes).
    Removing hc32_ll_pwc.o(i.PWC_LVD_Cmd), (156 bytes).
    Removing hc32_ll_pwc.o(i.PWC_LVD_CompareOutputCmd), (160 bytes).
    Removing hc32_ll_pwc.o(i.PWC_LVD_DeInit), (204 bytes).
    Removing hc32_ll_pwc.o(i.PWC_LVD_DigitalFilterCmd), (160 bytes).
    Removing hc32_ll_pwc.o(i.PWC_LVD_ExtInputCmd), (128 bytes).
    Removing hc32_ll_pwc.o(i.PWC_LVD_GetStatus), (80 bytes).
    Removing hc32_ll_pwc.o(i.PWC_LVD_Init), (636 bytes).
    Removing hc32_ll_pwc.o(i.PWC_LVD_SetFilterClock), (160 bytes).
    Removing hc32_ll_pwc.o(i.PWC_LVD_SetThresholdVoltage), (176 bytes).
    Removing hc32_ll_pwc.o(i.PWC_LVD_StructInit), (32 bytes).
    Removing hc32_ll_pwc.o(i.PWC_LowSpeedToHighPerformance), (220 bytes).
    Removing hc32_ll_pwc.o(i.PWC_LowSpeedToHighSpeed), (216 bytes).
    Removing hc32_ll_pwc.o(i.PWC_PD_ClearWakeupStatus), (92 bytes).
    Removing hc32_ll_pwc.o(i.PWC_PD_Config), (224 bytes).
    Removing hc32_ll_pwc.o(i.PWC_PD_GetWakeupStatus), (100 bytes).
    Removing hc32_ll_pwc.o(i.PWC_PD_PeriphRamCmd), (160 bytes).
    Removing hc32_ll_pwc.o(i.PWC_PD_SetIoState), (116 bytes).
    Removing hc32_ll_pwc.o(i.PWC_PD_SetMode), (120 bytes).
    Removing hc32_ll_pwc.o(i.PWC_PD_SetWakeupTriggerEdge), (152 bytes).
    Removing hc32_ll_pwc.o(i.PWC_PD_StructInit), (20 bytes).
    Removing hc32_ll_pwc.o(i.PWC_PD_VdrCmd), (128 bytes).
    Removing hc32_ll_pwc.o(i.PWC_PD_WakeupCmd), (84 bytes).
    Removing hc32_ll_pwc.o(i.PWC_PowerMonitorCmd), (128 bytes).
    Removing hc32_ll_pwc.o(i.PWC_RamModeConfig), (108 bytes).
    Removing hc32_ll_pwc.o(i.PWC_RetSram_PowerCmd), (128 bytes).
    Removing hc32_ll_pwc.o(i.PWC_SLEEP_Enter), (156 bytes).
    Removing hc32_ll_pwc.o(i.PWC_STOP_ClockBackup), (24 bytes).
    Removing hc32_ll_pwc.o(i.PWC_STOP_ClockRecover), (24 bytes).
    Removing hc32_ll_pwc.o(i.PWC_STOP_ClockSelect), (112 bytes).
    Removing hc32_ll_pwc.o(i.PWC_STOP_Config), (208 bytes).
    Removing hc32_ll_pwc.o(i.PWC_STOP_Enter), (200 bytes).
    Removing hc32_ll_pwc.o(i.PWC_STOP_FlashWaitCmd), (124 bytes).
    Removing hc32_ll_pwc.o(i.PWC_STOP_IrqClockBackup), (44 bytes).
    Removing hc32_ll_pwc.o(i.PWC_STOP_IrqClockRecover), (36 bytes).
    Removing hc32_ll_pwc.o(i.PWC_STOP_NvicBackup), (768 bytes).
    Removing hc32_ll_pwc.o(i.PWC_STOP_NvicRecover), (36 bytes).
    Removing hc32_ll_pwc.o(i.PWC_STOP_SetDrv), (112 bytes).
    Removing hc32_ll_pwc.o(i.PWC_STOP_StructInit), (20 bytes).
    Removing hc32_ll_pwc.o(i.PWC_SetSysClk), (176 bytes).
    Removing hc32_ll_pwc.o(i.PWC_WKT_ClearStatus), (84 bytes).
    Removing hc32_ll_pwc.o(i.PWC_WKT_Cmd), (128 bytes).
    Removing hc32_ll_pwc.o(i.PWC_WKT_Config), (152 bytes).
    Removing hc32_ll_pwc.o(i.PWC_WKT_GetCompareValue), (16 bytes).
    Removing hc32_ll_pwc.o(i.PWC_WKT_GetStatus), (24 bytes).
    Removing hc32_ll_pwc.o(i.PWC_WKT_SetCompareValue), (116 bytes).
    Removing hc32_ll_pwc.o(i.PWC_XTAL32_PowerCmd), (128 bytes).
    Removing hc32_ll_pwc.o(i.__NVIC_DisableIRQ), (36 bytes).
    Removing hc32_ll_pwc.o(.bss), (20 bytes).
    Removing hc32_ll_pwc.o(.data), (5 bytes).
    Removing hc32_ll_sram.o(.rev16_text), (4 bytes).
    Removing hc32_ll_sram.o(.revsh_text), (4 bytes).
    Removing hc32_ll_sram.o(.rrx_text), (6 bytes).
    Removing hc32_ll_sram.o(i.SRAM_ClearStatus), (68 bytes).
    Removing hc32_ll_sram.o(i.SRAM_DeInit), (112 bytes).
    Removing hc32_ll_sram.o(i.SRAM_GetStatus), (80 bytes).
    Removing hc32_ll_sram.o(i.SRAM_Init), (20 bytes).
    Removing hc32_ll_sram.o(i.SRAM_SetEccMode), (132 bytes).
    Removing hc32_ll_sram.o(i.SRAM_SetExceptionType), (144 bytes).
    Removing hc32_ll_efm.o(.rev16_text), (4 bytes).
    Removing hc32_ll_efm.o(.revsh_text), (4 bytes).
    Removing hc32_ll_efm.o(.rrx_text), (6 bytes).
    Removing hc32_ll_efm.o(RAMCODE), (1064 bytes).
    Removing hc32_ll_efm.o(i.EFM_CacheCmd), (92 bytes).
    Removing hc32_ll_efm.o(i.EFM_CacheRamReset), (92 bytes).
    Removing hc32_ll_efm.o(i.EFM_ClearStatus), (100 bytes).
    Removing hc32_ll_efm.o(i.EFM_Cmd), (140 bytes).
    Removing hc32_ll_efm.o(i.EFM_FWMC_Cmd), (64 bytes).
    Removing hc32_ll_efm.o(i.EFM_GetAnyStatus), (84 bytes).
    Removing hc32_ll_efm.o(i.EFM_GetStatus), (84 bytes).
    Removing hc32_ll_efm.o(i.EFM_GetSwapStatus), (20 bytes).
    Removing hc32_ll_efm.o(i.EFM_GetUID), (32 bytes).
    Removing hc32_ll_efm.o(i.EFM_IntCmd), (144 bytes).
    Removing hc32_ll_efm.o(i.EFM_LowVoltageCmd), (64 bytes).
    Removing hc32_ll_efm.o(i.EFM_LowVoltageReadCmd), (92 bytes).
    Removing hc32_ll_efm.o(i.EFM_OTP_Lock), (268 bytes).
    Removing hc32_ll_efm.o(i.EFM_Program), (492 bytes).
    Removing hc32_ll_efm.o(i.EFM_ProgramWord), (320 bytes).
    Removing hc32_ll_efm.o(i.EFM_ProgramWordReadBack), (284 bytes).
    Removing hc32_ll_efm.o(i.EFM_Protect_Enable), (68 bytes).
    Removing hc32_ll_efm.o(i.EFM_REMAP_Cmd), (140 bytes).
    Removing hc32_ll_efm.o(i.EFM_REMAP_DeInit), (72 bytes).
    Removing hc32_ll_efm.o(i.EFM_REMAP_Init), (264 bytes).
    Removing hc32_ll_efm.o(i.EFM_REMAP_SetAddr), (152 bytes).
    Removing hc32_ll_efm.o(i.EFM_REMAP_SetSize), (128 bytes).
    Removing hc32_ll_efm.o(i.EFM_REMAP_StructInit), (22 bytes).
    Removing hc32_ll_efm.o(i.EFM_ReadByte), (252 bytes).
    Removing hc32_ll_efm.o(i.EFM_SectorErase), (280 bytes).
    Removing hc32_ll_efm.o(i.EFM_SetBusStatus), (120 bytes).
    Removing hc32_ll_efm.o(i.EFM_SetOperateMode), (208 bytes).
    Removing hc32_ll_efm.o(i.EFM_SetWindowProtectAddr), (180 bytes).
    Removing hc32_ll_efm.o(i.EFM_SwapCmd), (320 bytes).
    Removing hc32_ll_efm.o(i.EFM_WaitEnd), (66 bytes).
    Removing hc32_ll_efm.o(i.EFM_WaitFlag), (48 bytes).
    Removing hc32_ll_efm.o(i.EFM_WaitReadBackEnd), (124 bytes).
    Removing hc32_ll_efm.o(i.EFM_WriteSecurityCode), (348 bytes).
    Removing hc32_ll_clk.o(.rev16_text), (4 bytes).
    Removing hc32_ll_clk.o(.revsh_text), (4 bytes).
    Removing hc32_ll_clk.o(.rrx_text), (6 bytes).
    Removing hc32_ll_clk.o(i.CLK_ClearXtalStdStatus), (80 bytes).
    Removing hc32_ll_clk.o(i.CLK_GetBusClockFreq), (276 bytes).
    Removing hc32_ll_clk.o(i.CLK_GetClockFreq), (22 bytes).
    Removing hc32_ll_clk.o(i.CLK_GetPLLClockFreq), (332 bytes).
    Removing hc32_ll_clk.o(i.CLK_GetXtalStdStatus), (20 bytes).
    Removing hc32_ll_clk.o(i.CLK_HrcCmd), (180 bytes).
    Removing hc32_ll_clk.o(i.CLK_HrcTrim), (72 bytes).
    Removing hc32_ll_clk.o(i.CLK_LrcCmd), (140 bytes).
    Removing hc32_ll_clk.o(i.CLK_LrcTrim), (72 bytes).
    Removing hc32_ll_clk.o(i.CLK_MCOCmd), (136 bytes).
    Removing hc32_ll_clk.o(i.CLK_MCOConfig), (220 bytes).
    Removing hc32_ll_clk.o(i.CLK_MrcCmd), (136 bytes).
    Removing hc32_ll_clk.o(i.CLK_MrcTrim), (72 bytes).
    Removing hc32_ll_clk.o(i.CLK_PLLxCmd), (164 bytes).
    Removing hc32_ll_clk.o(i.CLK_PLLxInit), (56 bytes).
    Removing hc32_ll_clk.o(i.CLK_PLLxStructInit), (74 bytes).
    Removing hc32_ll_clk.o(i.CLK_SetI2SClockSrc), (204 bytes).
    Removing hc32_ll_clk.o(i.CLK_SetPLLSrc), (108 bytes).
    Removing hc32_ll_clk.o(i.CLK_SetPeriClockSrc), (144 bytes).
    Removing hc32_ll_clk.o(i.CLK_SetTpiuClockDiv), (116 bytes).
    Removing hc32_ll_clk.o(i.CLK_SetUSBClockSrc), (132 bytes).
    Removing hc32_ll_clk.o(i.CLK_SetXtalStdExceptionType), (152 bytes).
    Removing hc32_ll_clk.o(i.CLK_TpiuClockCmd), (116 bytes).
    Removing hc32_ll_clk.o(i.CLK_Xtal32Cmd), (140 bytes).
    Removing hc32_ll_clk.o(i.CLK_Xtal32Init), (196 bytes).
    Removing hc32_ll_clk.o(i.CLK_Xtal32StructInit), (20 bytes).
    Removing hc32_ll_clk.o(i.CLK_XtalStdCmd), (128 bytes).
    Removing hc32_ll_clk.o(i.CLK_XtalStdInit), (160 bytes).
    Removing hc32_ll_clk.o(i.GetClockFreq), (264 bytes).
    Removing hc32_ll_clk.o(i.PLLxParamCheck), (576 bytes).
    Removing hc32_ll_gpio.o(.rev16_text), (4 bytes).
    Removing hc32_ll_gpio.o(.revsh_text), (4 bytes).
    Removing hc32_ll_gpio.o(.rrx_text), (6 bytes).
    Removing hc32_ll_gpio.o(i.GPIO_AnalogCmd), (196 bytes).
    Removing hc32_ll_gpio.o(i.GPIO_DeInit), (132 bytes).
    Removing hc32_ll_gpio.o(i.GPIO_ExtIntCmd), (228 bytes).
    Removing hc32_ll_gpio.o(i.GPIO_InputMOSCmd), (172 bytes).
    Removing hc32_ll_gpio.o(i.GPIO_OutputCmd), (156 bytes).
    Removing hc32_ll_gpio.o(i.GPIO_ReadInputPins), (120 bytes).
    Removing hc32_ll_gpio.o(i.GPIO_ReadInputPort), (88 bytes).
    Removing hc32_ll_gpio.o(i.GPIO_ReadOutputPins), (120 bytes).
    Removing hc32_ll_gpio.o(i.GPIO_ReadOutputPort), (88 bytes).
    Removing hc32_ll_gpio.o(i.GPIO_SetDebugPort), (156 bytes).
    Removing hc32_ll_gpio.o(i.GPIO_SetSubFunc), (116 bytes).
    Removing hc32_ll_gpio.o(i.GPIO_SubFuncCmd), (196 bytes).
    Removing hc32_ll_gpio.o(i.GPIO_TogglePins), (116 bytes).
    Removing hc32_ll_gpio.o(i.GPIO_WritePort), (88 bytes).
    Removing hc32_ll_gpio.o(.constdata), (24 bytes).
    Removing hc32_ll_fcg.o(.rev16_text), (4 bytes).
    Removing hc32_ll_fcg.o(.revsh_text), (4 bytes).
    Removing hc32_ll_fcg.o(.rrx_text), (6 bytes).
    Removing hc32_ll_fcg.o(i.FCG_Fcg0PeriphClockCmd), (140 bytes).
    Removing hc32_ll_fcg.o(i.FCG_Fcg3PeriphClockCmd), (116 bytes).
    Removing hc32_ll_aos.o(.rev16_text), (4 bytes).
    Removing hc32_ll_aos.o(.revsh_text), (4 bytes).
    Removing hc32_ll_aos.o(.rrx_text), (6 bytes).
    Removing hc32_ll_aos.o(i.AOS_CommonTriggerCmd), (140 bytes).
    Removing hc32_ll_aos.o(i.AOS_SetTriggerEventSrc), (84 bytes).
    Removing hc32_ll_cmp.o(.rev16_text), (4 bytes).
    Removing hc32_ll_cmp.o(.revsh_text), (4 bytes).
    Removing hc32_ll_cmp.o(.rrx_text), (6 bytes).
    Removing hc32_ll_cmp.o(i.CMP_8BitDAC_AdcRefCmd), (120 bytes).
    Removing hc32_ll_cmp.o(i.CMP_8BitDAC_Cmd), (120 bytes).
    Removing hc32_ll_cmp.o(i.CMP_8BitDAC_WriteData), (100 bytes).
    Removing hc32_ll_cmp.o(i.CMP_CompareOutCmd), (124 bytes).
    Removing hc32_ll_cmp.o(i.CMP_DeInit), (120 bytes).
    Removing hc32_ll_cmp.o(i.CMP_DelayUS), (60 bytes).
    Removing hc32_ll_cmp.o(i.CMP_FuncCmd), (128 bytes).
    Removing hc32_ll_cmp.o(i.CMP_GetScanInpSrc), (84 bytes).
    Removing hc32_ll_cmp.o(i.CMP_GetStatus), (84 bytes).
    Removing hc32_ll_cmp.o(i.CMP_IntCmd), (124 bytes).
    Removing hc32_ll_cmp.o(i.CMP_NormalModeInit), (492 bytes).
    Removing hc32_ll_cmp.o(i.CMP_PinVcoutCmd), (124 bytes).
    Removing hc32_ll_cmp.o(i.CMP_ScanCmd), (120 bytes).
    Removing hc32_ll_cmp.o(i.CMP_ScanTimeConfig), (180 bytes).
    Removing hc32_ll_cmp.o(i.CMP_SetNegativeInput), (144 bytes).
    Removing hc32_ll_cmp.o(i.CMP_SetOutDetectEdge), (140 bytes).
    Removing hc32_ll_cmp.o(i.CMP_SetOutFilter), (156 bytes).
    Removing hc32_ll_cmp.o(i.CMP_SetOutPolarity), (136 bytes).
    Removing hc32_ll_cmp.o(i.CMP_SetPositiveInput), (252 bytes).
    Removing hc32_ll_cmp.o(i.CMP_StructInit), (24 bytes).
    Removing hc32_ll_cmp.o(i.GetCmpFuncStatusAndDisFunc), (72 bytes).
    Removing hc32_ll_cmp.o(i.RecoverCmpFuncStatus), (30 bytes).
    Removing hc32_ll_interrupts.o(.rev16_text), (4 bytes).
    Removing hc32_ll_interrupts.o(.revsh_text), (4 bytes).
    Removing hc32_ll_interrupts.o(.rrx_text), (6 bytes).
    Removing hc32_ll_interrupts.o(i.EXTINT_ClearExtIntStatus), (80 bytes).
    Removing hc32_ll_interrupts.o(i.EXTINT_GetExtIntStatus), (88 bytes).
    Removing hc32_ll_interrupts.o(i.EXTINT_Init), (248 bytes).
    Removing hc32_ll_interrupts.o(i.EXTINT_StructInit), (20 bytes).
    Removing hc32_ll_interrupts.o(i.INTC_EventCmd), (124 bytes).
    Removing hc32_ll_interrupts.o(i.INTC_IntCmd), (124 bytes).
    Removing hc32_ll_interrupts.o(i.INTC_IrqSignOut), (56 bytes).
    Removing hc32_ll_interrupts.o(i.INTC_SWIntCmd), (124 bytes).
    Removing hc32_ll_interrupts.o(i.INTC_SWIntInit), (160 bytes).
    Removing hc32_ll_interrupts.o(i.INTC_WakeupSrcCmd), (124 bytes).
    Removing hc32_ll_interrupts.o(i.NMI_ClearNmiStatus), (80 bytes).
    Removing hc32_ll_interrupts.o(i.NMI_GetNmiStatus), (88 bytes).
    Removing hc32_ll_interrupts.o(i.NMI_Init), (216 bytes).
    Removing hc32_ll_interrupts.o(i.NMI_NmiSrcCmd), (124 bytes).
    Removing hc32_ll_interrupts.o(i.NMI_StructInit), (22 bytes).
    Removing hc32f460_ll_interrupts_share.o(.rev16_text), (4 bytes).
    Removing hc32f460_ll_interrupts_share.o(.revsh_text), (4 bytes).
    Removing hc32f460_ll_interrupts_share.o(.rrx_text), (6 bytes).
    Removing hc32f460_ll_interrupts_share.o(i.INTC_ShareIrqCmd), (124 bytes).
    Removing hc32_ll_tmra.o(.rev16_text), (4 bytes).
    Removing hc32_ll_tmra.o(.revsh_text), (4 bytes).
    Removing hc32_ll_tmra.o(.rrx_text), (6 bytes).
    Removing hc32_ll_tmra.o(i.TMRA_CompareBufCmd), (192 bytes).
    Removing hc32_ll_tmra.o(i.TMRA_DeInit), (220 bytes).
    Removing hc32_ll_tmra.o(i.TMRA_EventCmd), (176 bytes).
    Removing hc32_ll_tmra.o(i.TMRA_FilterCmd), (196 bytes).
    Removing hc32_ll_tmra.o(i.TMRA_GetCompareValue), (124 bytes).
    Removing hc32_ll_tmra.o(i.TMRA_GetCountDir), (120 bytes).
    Removing hc32_ll_tmra.o(i.TMRA_GetPeriodValue), (112 bytes).
    Removing hc32_ll_tmra.o(i.TMRA_GetStatus), (164 bytes).
    Removing hc32_ll_tmra.o(i.TMRA_HWCaptureCondCmd), (236 bytes).
    Removing hc32_ll_tmra.o(i.TMRA_HWClearCondCmd), (192 bytes).
    Removing hc32_ll_tmra.o(i.TMRA_HWCountDownCondCmd), (196 bytes).
    Removing hc32_ll_tmra.o(i.TMRA_HWCountUpCondCmd), (196 bytes).
    Removing hc32_ll_tmra.o(i.TMRA_HWStartCondCmd), (188 bytes).
    Removing hc32_ll_tmra.o(i.TMRA_HWStopCondCmd), (188 bytes).
    Removing hc32_ll_tmra.o(i.TMRA_PWM_SetForcePolarity), (176 bytes).
    Removing hc32_ll_tmra.o(i.TMRA_PWM_SetPolarity), (244 bytes).
    Removing hc32_ll_tmra.o(i.TMRA_SetClockDiv), (188 bytes).
    Removing hc32_ll_tmra.o(i.TMRA_SetCompareBufCond), (204 bytes).
    Removing hc32_ll_tmra.o(i.TMRA_SetCountDir), (152 bytes).
    Removing hc32_ll_tmra.o(i.TMRA_SetCountMode), (152 bytes).
    Removing hc32_ll_tmra.o(i.TMRA_SetFilterClockDiv), (224 bytes).
    Removing hc32_ll_tmra.o(i.TMRA_Stop), (124 bytes).
    Removing hc32_ll_tmra.o(i.TMRA_SyncStartCmd), (140 bytes).
    Removing hc32_ll_spi.o(.rev16_text), (4 bytes).
    Removing hc32_ll_spi.o(.revsh_text), (4 bytes).
    Removing hc32_ll_spi.o(.rrx_text), (6 bytes).
    Removing hc32_ll_spi.o(i.SPI_ClearStatus), (124 bytes).
    Removing hc32_ll_spi.o(i.SPI_DeInit), (112 bytes).
    Removing hc32_ll_spi.o(i.SPI_GetStatus), (156 bytes).
    Removing hc32_ll_spi.o(i.SPI_IntCmd), (164 bytes).
    Removing hc32_ll_spi.o(i.SPI_ReadData), (92 bytes).
    Removing hc32_ll_spi.o(i.SPI_Receive), (42 bytes).
    Removing hc32_ll_spi.o(i.SPI_SetReadBuf), (128 bytes).
    Removing hc32_ll_spi.o(i.SPI_SetSckPhase), (136 bytes).
    Removing hc32_ll_spi.o(i.SPI_SetSckPolarity), (136 bytes).
    Removing hc32_ll_spi.o(i.SPI_Trans), (70 bytes).
    Removing hc32_ll_spi.o(i.SPI_TransReceive), (50 bytes).
    Removing hc32_ll_spi.o(i.SPI_Tx), (220 bytes).
    Removing hc32_ll_spi.o(i.SPI_TxRx), (440 bytes).
    Removing hc32_ll_spi.o(i.SPI_WaitStatus), (30 bytes).
    Removing hc32_ll_spi.o(i.SPI_WriteData), (96 bytes).
    Removing mp6602.o(.rev16_text), (4 bytes).
    Removing mp6602.o(.revsh_text), (4 bytes).
    Removing mp6602.o(.rrx_text), (6 bytes).
    Removing mp6602.o(i.MP6602_ReadFaults), (10 bytes).
    Removing mp6602.o(i.MP6602_ReadRegister), (116 bytes).
    Removing mp6602.o(i.MP6602_ReadStepPosition), (16 bytes).
    Removing mp6602.o(i.MP6602_SetMicrostep), (36 bytes).
    Removing mp6602.o(i.MP6602_WriteRegister), (96 bytes).
    Removing mp6602.o(i.MP6602_init), (12 bytes).
    Removing dmul.o(.text), (228 bytes).
    Removing dfixui.o(.text), (50 bytes).
    Removing f2d.o(.text), (38 bytes).
    Removing d2f.o(.text), (56 bytes).
    Removing depilogue.o(.text), (186 bytes).
    Removing dadd.o(.text), (334 bytes).
    Removing ddiv.o(.text), (222 bytes).
    Removing dscalb.o(.text), (46 bytes).
    Removing dflti.o(.text), (34 bytes).
    Removing cdrcmple.o(.text), (48 bytes).
    Removing fpstat.o(.text), (4 bytes).
    Removing dsqrt.o(.text), (162 bytes).
    Removing cdcmple.o(.text), (48 bytes).

315 unused section(s) (total 43995 bytes) removed from the image.

==============================================================================

Image Symbol Table

    Local Symbols

    Symbol Name                              Value     Ov Type        Size  Object(Section)

    RESET                                    0x00000000   Section      640  startup_hc32f460.o(RESET)
    ../clib/microlib/errno.c                 0x00000000   Number         0  errno.o ABSOLUTE
    ../clib/microlib/init/entry.s            0x00000000   Number         0  entry8b.o ABSOLUTE
    ../clib/microlib/init/entry.s            0x00000000   Number         0  entry10b.o ABSOLUTE
    ../clib/microlib/init/entry.s            0x00000000   Number         0  entry2.o ABSOLUTE
    ../clib/microlib/init/entry.s            0x00000000   Number         0  entry.o ABSOLUTE
    ../clib/microlib/init/entry.s            0x00000000   Number         0  entry5.o ABSOLUTE
    ../clib/microlib/init/entry.s            0x00000000   Number         0  entry11a.o ABSOLUTE
    ../clib/microlib/init/entry.s            0x00000000   Number         0  entry10a.o ABSOLUTE
    ../clib/microlib/init/entry.s            0x00000000   Number         0  entry7a.o ABSOLUTE
    ../clib/microlib/init/entry.s            0x00000000   Number         0  entry7b.o ABSOLUTE
    ../clib/microlib/init/entry.s            0x00000000   Number         0  entry8a.o ABSOLUTE
    ../clib/microlib/init/entry.s            0x00000000   Number         0  entry11b.o ABSOLUTE
    ../clib/microlib/init/entry.s            0x00000000   Number         0  entry9b.o ABSOLUTE
    ../clib/microlib/init/entry.s            0x00000000   Number         0  entry9a.o ABSOLUTE
    ../clib/microlib/longlong.c              0x00000000   Number         0  llsshr.o ABSOLUTE
    ../clib/microlib/longlong.c              0x00000000   Number         0  llshl.o ABSOLUTE
    ../clib/microlib/longlong.c              0x00000000   Number         0  llushr.o ABSOLUTE
    ../clib/microlib/string/memset.c         0x00000000   Number         0  memseta.o ABSOLUTE
    ../clib/microlib/stubs.s                 0x00000000   Number         0  iusefp.o ABSOLUTE
    ../fplib/microlib/d2f.c                  0x00000000   Number         0  d2f.o ABSOLUTE
    ../fplib/microlib/f2d.c                  0x00000000   Number         0  f2d.o ABSOLUTE
    ../fplib/microlib/fpadd.c                0x00000000   Number         0  dadd.o ABSOLUTE
    ../fplib/microlib/fpadd.c                0x00000000   Number         0  fadd.o ABSOLUTE
    ../fplib/microlib/fpdiv.c                0x00000000   Number         0  fdiv.o ABSOLUTE
    ../fplib/microlib/fpdiv.c                0x00000000   Number         0  ddiv.o ABSOLUTE
    ../fplib/microlib/fpepilogue.c           0x00000000   Number         0  fepilogue.o ABSOLUTE
    ../fplib/microlib/fpepilogue.c           0x00000000   Number         0  depilogue.o ABSOLUTE
    ../fplib/microlib/fpfix.c                0x00000000   Number         0  dfixui.o ABSOLUTE
    ../fplib/microlib/fpfix.c                0x00000000   Number         0  ffixi.o ABSOLUTE
    ../fplib/microlib/fpfix.c                0x00000000   Number         0  ffixui.o ABSOLUTE
    ../fplib/microlib/fpflt.c                0x00000000   Number         0  fflti.o ABSOLUTE
    ../fplib/microlib/fpflt.c                0x00000000   Number         0  dflti.o ABSOLUTE
    ../fplib/microlib/fpmul.c                0x00000000   Number         0  fmul.o ABSOLUTE
    ../fplib/microlib/fpmul.c                0x00000000   Number         0  dmul.o ABSOLUTE
    ../fplib/microlib/fprnd.c                0x00000000   Number         0  frnd.o ABSOLUTE
    ../fplib/microlib/fpscalb.c              0x00000000   Number         0  fscalb.o ABSOLUTE
    ../fplib/microlib/fpscalb.c              0x00000000   Number         0  dscalb.o ABSOLUTE
    ../fplib/microlib/fpsqrt.c               0x00000000   Number         0  dsqrt.o ABSOLUTE
    ../fplib/microlib/fpstat.c               0x00000000   Number         0  fpstat.o ABSOLUTE
    ../mathlib/dunder.c                      0x00000000   Number         0  dunder.o ABSOLUTE
    ../mathlib/expf.c                        0x00000000   Number         0  expf_x.o ABSOLUTE
    ../mathlib/expf.c                        0x00000000   Number         0  expf.o ABSOLUTE
    ../mathlib/fpclassify.c                  0x00000000   Number         0  fpclassify.o ABSOLUTE
    ../mathlib/fpclassifyf.c                 0x00000000   Number         0  fpclassifyf.o ABSOLUTE
    ../mathlib/funder.c                      0x00000000   Number         0  funder.o ABSOLUTE
    ../mathlib/poly.c                        0x00000000   Number         0  poly.o ABSOLUTE
    ../mathlib/pow.c                         0x00000000   Number         0  pow_x.o ABSOLUTE
    ../mathlib/pow.c                         0x00000000   Number         0  pow.o ABSOLUTE
    ../mathlib/qnan.c                        0x00000000   Number         0  qnan.o ABSOLUTE
    ../mathlib/sqrt.c                        0x00000000   Number         0  sqrt_x.o ABSOLUTE
    ../mathlib/sqrt.c                        0x00000000   Number         0  sqrt.o ABSOLUTE
    MP6602\\mp6602.c                         0x00000000   Number         0  mp6602.o ABSOLUTE
    MP6602\mp6602.c                          0x00000000   Number         0  mp6602.o ABSOLUTE
    cdcmple.s                                0x00000000   Number         0  cdcmple.o ABSOLUTE
    cdrcmple.s                               0x00000000   Number         0  cdrcmple.o ABSOLUTE
    cfcmple.s                                0x00000000   Number         0  cfcmple.o ABSOLUTE
    common\\system_hc32f460.c                0x00000000   Number         0  system_hc32f460.o ABSOLUTE
    common\system_hc32f460.c                 0x00000000   Number         0  system_hc32f460.o ABSOLUTE
    dc.s                                     0x00000000   Number         0  dc.o ABSOLUTE
    driver\\src\\hc32_ll.c                   0x00000000   Number         0  hc32_ll.o ABSOLUTE
    driver\\src\\hc32_ll_aos.c               0x00000000   Number         0  hc32_ll_aos.o ABSOLUTE
    driver\\src\\hc32_ll_clk.c               0x00000000   Number         0  hc32_ll_clk.o ABSOLUTE
    driver\\src\\hc32_ll_cmp.c               0x00000000   Number         0  hc32_ll_cmp.o ABSOLUTE
    driver\\src\\hc32_ll_efm.c               0x00000000   Number         0  hc32_ll_efm.o ABSOLUTE
    driver\\src\\hc32_ll_fcg.c               0x00000000   Number         0  hc32_ll_fcg.o ABSOLUTE
    driver\\src\\hc32_ll_gpio.c              0x00000000   Number         0  hc32_ll_gpio.o ABSOLUTE
    driver\\src\\hc32_ll_icg.c               0x00000000   Number         0  hc32_ll_icg.o ABSOLUTE
    driver\\src\\hc32_ll_interrupts.c        0x00000000   Number         0  hc32_ll_interrupts.o ABSOLUTE
    driver\\src\\hc32_ll_pwc.c               0x00000000   Number         0  hc32_ll_pwc.o ABSOLUTE
    driver\\src\\hc32_ll_spi.c               0x00000000   Number         0  hc32_ll_spi.o ABSOLUTE
    driver\\src\\hc32_ll_sram.c              0x00000000   Number         0  hc32_ll_sram.o ABSOLUTE
    driver\\src\\hc32_ll_tmra.c              0x00000000   Number         0  hc32_ll_tmra.o ABSOLUTE
    driver\\src\\hc32_ll_utility.c           0x00000000   Number         0  hc32_ll_utility.o ABSOLUTE
    driver\\src\\hc32f460_ll_interrupts_share.c 0x00000000   Number         0  hc32f460_ll_interrupts_share.o ABSOLUTE
    driver\src\hc32_ll.c                     0x00000000   Number         0  hc32_ll.o ABSOLUTE
    driver\src\hc32_ll_aos.c                 0x00000000   Number         0  hc32_ll_aos.o ABSOLUTE
    driver\src\hc32_ll_clk.c                 0x00000000   Number         0  hc32_ll_clk.o ABSOLUTE
    driver\src\hc32_ll_cmp.c                 0x00000000   Number         0  hc32_ll_cmp.o ABSOLUTE
    driver\src\hc32_ll_efm.c                 0x00000000   Number         0  hc32_ll_efm.o ABSOLUTE
    driver\src\hc32_ll_fcg.c                 0x00000000   Number         0  hc32_ll_fcg.o ABSOLUTE
    driver\src\hc32_ll_gpio.c                0x00000000   Number         0  hc32_ll_gpio.o ABSOLUTE
    driver\src\hc32_ll_icg.c                 0x00000000   Number         0  hc32_ll_icg.o ABSOLUTE
    driver\src\hc32_ll_interrupts.c          0x00000000   Number         0  hc32_ll_interrupts.o ABSOLUTE
    driver\src\hc32_ll_pwc.c                 0x00000000   Number         0  hc32_ll_pwc.o ABSOLUTE
    driver\src\hc32_ll_spi.c                 0x00000000   Number         0  hc32_ll_spi.o ABSOLUTE
    driver\src\hc32_ll_sram.c                0x00000000   Number         0  hc32_ll_sram.o ABSOLUTE
    driver\src\hc32_ll_tmra.c                0x00000000   Number         0  hc32_ll_tmra.o ABSOLUTE
    driver\src\hc32_ll_utility.c             0x00000000   Number         0  hc32_ll_utility.o ABSOLUTE
    driver\src\hc32f460_ll_interrupts_share.c 0x00000000   Number         0  hc32f460_ll_interrupts_share.o ABSOLUTE
    handlers.s                               0x00000000   Number         0  handlers.o ABSOLUTE
    init.s                                   0x00000000   Number         0  init.o ABSOLUTE
    source\Tim.c                             0x00000000   Number         0  tim.o ABSOLUTE
    source\\Tim.c                            0x00000000   Number         0  tim.o ABSOLUTE
    source\\control_step.c                   0x00000000   Number         0  control_step.o ABSOLUTE
    source\\main.c                           0x00000000   Number         0  main.o ABSOLUTE
    source\control_step.c                    0x00000000   Number         0  control_step.o ABSOLUTE
    source\main.c                            0x00000000   Number         0  main.o ABSOLUTE
    startup_hc32f460.s                       0x00000000   Number         0  startup_hc32f460.o ABSOLUTE
    .ARM.Collect$$$$00000000                 0x00000280   Section        0  entry.o(.ARM.Collect$$$$00000000)
    .ARM.Collect$$$$00000001                 0x00000280   Section        4  entry2.o(.ARM.Collect$$$$00000001)
    .ARM.Collect$$$$00000004                 0x00000284   Section        4  entry5.o(.ARM.Collect$$$$00000004)
    .ARM.Collect$$$$00000008                 0x00000288   Section        0  entry7b.o(.ARM.Collect$$$$00000008)
    .ARM.Collect$$$$0000000A                 0x00000288   Section        0  entry8b.o(.ARM.Collect$$$$0000000A)
    .ARM.Collect$$$$0000000B                 0x00000288   Section        8  entry9a.o(.ARM.Collect$$$$0000000B)
    .ARM.Collect$$$$0000000D                 0x00000290   Section        0  entry10a.o(.ARM.Collect$$$$0000000D)
    .ARM.Collect$$$$0000000F                 0x00000290   Section        0  entry11a.o(.ARM.Collect$$$$0000000F)
    .ARM.Collect$$$$00002712                 0x00000290   Section        4  entry2.o(.ARM.Collect$$$$00002712)
    __lit__00000000                          0x00000290   Data           4  entry2.o(.ARM.Collect$$$$00002712)
    .text                                    0x00000294   Section      100  startup_hc32f460.o(.text)
    .text                                    0x000002f8   Section        0  memseta.o(.text)
    .text                                    0x0000031c   Section        0  fadd.o(.text)
    .text                                    0x000003cc   Section        0  fflti.o(.text)
    .text                                    0x000003e0   Section       20  cfcmple.o(.text)
    .text                                    0x000003f4   Section        0  iusefp.o(.text)
    i.ADC1_ChCmp_IrqHandler                  0x000003f4   Section        0  hc32f460_ll_interrupts_share.o(i.ADC1_ChCmp_IrqHandler)
    i.ADC1_SeqA_IrqHandler                   0x000003f6   Section        0  hc32f460_ll_interrupts_share.o(i.ADC1_SeqA_IrqHandler)
    i.ADC1_SeqB_IrqHandler                   0x000003f8   Section        0  hc32f460_ll_interrupts_share.o(i.ADC1_SeqB_IrqHandler)
    i.ADC1_SeqCmp_IrqHandler                 0x000003fa   Section        0  hc32f460_ll_interrupts_share.o(i.ADC1_SeqCmp_IrqHandler)
    i.ADC2_ChCmp_IrqHandler                  0x000003fc   Section        0  hc32f460_ll_interrupts_share.o(i.ADC2_ChCmp_IrqHandler)
    i.ADC2_SeqA_IrqHandler                   0x000003fe   Section        0  hc32f460_ll_interrupts_share.o(i.ADC2_SeqA_IrqHandler)
    .ARM.__AT_0x00000400                     0x00000400   Section       32  hc32_ll_icg.o(.ARM.__AT_0x00000400)
    __tagsym$$used                           0x00000400   Number         0  hc32_ll_icg.o(.ARM.__AT_0x00000400)
    .text                                    0x00000420   Section        0  fmul.o(.text)
    .text                                    0x00000484   Section        0  fdiv.o(.text)
    .text                                    0x00000500   Section        0  ffixi.o(.text)
    .text                                    0x00000532   Section        0  ffixui.o(.text)
    .text                                    0x0000055a   Section        0  fepilogue.o(.text)
    .text                                    0x000005c8   Section        0  fscalb.o(.text)
    .text                                    0x000005e0   Section        0  frnd.o(.text)
    .text                                    0x0000061c   Section       36  init.o(.text)
    i.ADC2_SeqB_IrqHandler                   0x00000640   Section        0  hc32f460_ll_interrupts_share.o(i.ADC2_SeqB_IrqHandler)
    i.ADC2_SeqCmp_IrqHandler                 0x00000642   Section        0  hc32f460_ll_interrupts_share.o(i.ADC2_SeqCmp_IrqHandler)
    i.App_ClkCfg                             0x00000644   Section        0  tim.o(i.App_ClkCfg)
    i.App_IntCfg                             0x000006f8   Section        0  tim.o(i.App_IntCfg)
    i.App_PortCfg                            0x0000078c   Section        0  control_step.o(i.App_PortCfg)
    i.App_SPIxCfg                            0x0000081c   Section        0  mp6602.o(i.App_SPIxCfg)
    i.App_TimerACfg                          0x000008a8   Section        0  tim.o(i.App_TimerACfg)
    i.CAN_IrqHandler                         0x00000978   Section        0  hc32f460_ll_interrupts_share.o(i.CAN_IrqHandler)
    i.CLK_GetStableStatus                    0x0000097c   Section        0  hc32_ll_clk.o(i.CLK_GetStableStatus)
    i.CLK_PLLCmd                             0x000009cc   Section        0  hc32_ll_clk.o(i.CLK_PLLCmd)
    i.CLK_PLLInit                            0x00000a84   Section        0  hc32_ll_clk.o(i.CLK_PLLInit)
    i.CLK_PLLStructInit                      0x00000d18   Section        0  hc32_ll_clk.o(i.CLK_PLLStructInit)
    i.CLK_SetClockDiv                        0x00000d6a   Section        0  hc32_ll_clk.o(i.CLK_SetClockDiv)
    i.CLK_SetSysClockSrc                     0x00000d7e   Section        0  hc32_ll_clk.o(i.CLK_SetSysClockSrc)
    i.CLK_WaitStable                         0x00000d8e   Section        0  hc32_ll_clk.o(i.CLK_WaitStable)
    CLK_WaitStable                           0x00000d8f   Thumb Code    48  hc32_ll_clk.o(i.CLK_WaitStable)
    i.CLK_XtalCmd                            0x00000dc0   Section        0  hc32_ll_clk.o(i.CLK_XtalCmd)
    i.CLK_XtalInit                           0x00000e74   Section        0  hc32_ll_clk.o(i.CLK_XtalInit)
    i.CLK_XtalStop_IrqHandler                0x00000fa8   Section        0  hc32f460_ll_interrupts_share.o(i.CLK_XtalStop_IrqHandler)
    i.CLK_XtalStructInit                     0x00000faa   Section        0  hc32_ll_clk.o(i.CLK_XtalStructInit)
    i.Calcspeed_e                            0x00000fc8   Section        0  control_step.o(i.Calcspeed_e)
    Calcspeed_e                              0x00000fc9   Thumb Code   356  control_step.o(i.Calcspeed_e)
    i.DCU1_IrqHandler                        0x0000114c   Section        0  hc32f460_ll_interrupts_share.o(i.DCU1_IrqHandler)
    i.DCU2_IrqHandler                        0x0000114e   Section        0  hc32f460_ll_interrupts_share.o(i.DCU2_IrqHandler)
    i.DCU3_IrqHandler                        0x00001150   Section        0  hc32f460_ll_interrupts_share.o(i.DCU3_IrqHandler)
    i.DCU4_IrqHandler                        0x00001152   Section        0  hc32f460_ll_interrupts_share.o(i.DCU4_IrqHandler)
    i.DDL_AssertHandler                      0x00001154   Section        0  hc32_ll_utility.o(i.DDL_AssertHandler)
    i.DDL_DelayUS                            0x00001158   Section        0  hc32_ll_utility.o(i.DDL_DelayUS)
    i.DMA1_BTC0_IrqHandler                   0x00001198   Section        0  hc32f460_ll_interrupts_share.o(i.DMA1_BTC0_IrqHandler)
    i.DMA1_BTC1_IrqHandler                   0x0000119a   Section        0  hc32f460_ll_interrupts_share.o(i.DMA1_BTC1_IrqHandler)
    i.DMA1_BTC2_IrqHandler                   0x0000119c   Section        0  hc32f460_ll_interrupts_share.o(i.DMA1_BTC2_IrqHandler)
    i.DMA1_BTC3_IrqHandler                   0x0000119e   Section        0  hc32f460_ll_interrupts_share.o(i.DMA1_BTC3_IrqHandler)
    i.DMA1_Error0_IrqHandler                 0x000011a0   Section        0  hc32f460_ll_interrupts_share.o(i.DMA1_Error0_IrqHandler)
    i.DMA1_Error1_IrqHandler                 0x000011a2   Section        0  hc32f460_ll_interrupts_share.o(i.DMA1_Error1_IrqHandler)
    i.DMA1_Error2_IrqHandler                 0x000011a4   Section        0  hc32f460_ll_interrupts_share.o(i.DMA1_Error2_IrqHandler)
    i.DMA1_Error3_IrqHandler                 0x000011a6   Section        0  hc32f460_ll_interrupts_share.o(i.DMA1_Error3_IrqHandler)
    i.DMA1_TC0_IrqHandler                    0x000011a8   Section        0  hc32f460_ll_interrupts_share.o(i.DMA1_TC0_IrqHandler)
    i.DMA1_TC1_IrqHandler                    0x000011aa   Section        0  hc32f460_ll_interrupts_share.o(i.DMA1_TC1_IrqHandler)
    i.DMA1_TC2_IrqHandler                    0x000011ac   Section        0  hc32f460_ll_interrupts_share.o(i.DMA1_TC2_IrqHandler)
    i.DMA1_TC3_IrqHandler                    0x000011ae   Section        0  hc32f460_ll_interrupts_share.o(i.DMA1_TC3_IrqHandler)
    i.DMA2_BTC0_IrqHandler                   0x000011b0   Section        0  hc32f460_ll_interrupts_share.o(i.DMA2_BTC0_IrqHandler)
    i.DMA2_BTC1_IrqHandler                   0x000011b2   Section        0  hc32f460_ll_interrupts_share.o(i.DMA2_BTC1_IrqHandler)
    i.DMA2_BTC2_IrqHandler                   0x000011b4   Section        0  hc32f460_ll_interrupts_share.o(i.DMA2_BTC2_IrqHandler)
    i.DMA2_BTC3_IrqHandler                   0x000011b6   Section        0  hc32f460_ll_interrupts_share.o(i.DMA2_BTC3_IrqHandler)
    i.DMA2_Error0_IrqHandler                 0x000011b8   Section        0  hc32f460_ll_interrupts_share.o(i.DMA2_Error0_IrqHandler)
    i.DMA2_Error1_IrqHandler                 0x000011ba   Section        0  hc32f460_ll_interrupts_share.o(i.DMA2_Error1_IrqHandler)
    i.DMA2_Error2_IrqHandler                 0x000011bc   Section        0  hc32f460_ll_interrupts_share.o(i.DMA2_Error2_IrqHandler)
    i.DMA2_Error3_IrqHandler                 0x000011be   Section        0  hc32f460_ll_interrupts_share.o(i.DMA2_Error3_IrqHandler)
    i.DMA2_TC0_IrqHandler                    0x000011c0   Section        0  hc32f460_ll_interrupts_share.o(i.DMA2_TC0_IrqHandler)
    i.DMA2_TC1_IrqHandler                    0x000011c2   Section        0  hc32f460_ll_interrupts_share.o(i.DMA2_TC1_IrqHandler)
    i.DMA2_TC2_IrqHandler                    0x000011c4   Section        0  hc32f460_ll_interrupts_share.o(i.DMA2_TC2_IrqHandler)
    i.DMA2_TC3_IrqHandler                    0x000011c6   Section        0  hc32f460_ll_interrupts_share.o(i.DMA2_TC3_IrqHandler)
    i.EFM_ColError_IrqHandler                0x000011c8   Section        0  hc32f460_ll_interrupts_share.o(i.EFM_ColError_IrqHandler)
    i.EFM_OpEnd_IrqHandler                   0x000011ca   Section        0  hc32f460_ll_interrupts_share.o(i.EFM_OpEnd_IrqHandler)
    i.EFM_ProgramEraseError_IrqHandler       0x000011cc   Section        0  hc32f460_ll_interrupts_share.o(i.EFM_ProgramEraseError_IrqHandler)
    i.EFM_SetWaitCycle                       0x000011d0   Section        0  hc32_ll_efm.o(i.EFM_SetWaitCycle)
    i.EMB_GR0_IrqHandler                     0x00001278   Section        0  hc32f460_ll_interrupts_share.o(i.EMB_GR0_IrqHandler)
    i.EMB_GR1_IrqHandler                     0x0000127a   Section        0  hc32f460_ll_interrupts_share.o(i.EMB_GR1_IrqHandler)
    i.EMB_GR2_IrqHandler                     0x0000127c   Section        0  hc32f460_ll_interrupts_share.o(i.EMB_GR2_IrqHandler)
    i.EMB_GR3_IrqHandler                     0x0000127e   Section        0  hc32f460_ll_interrupts_share.o(i.EMB_GR3_IrqHandler)
    i.EXTINT00_IrqHandler                    0x00001280   Section        0  hc32f460_ll_interrupts_share.o(i.EXTINT00_IrqHandler)
    i.EXTINT01_IrqHandler                    0x00001282   Section        0  hc32f460_ll_interrupts_share.o(i.EXTINT01_IrqHandler)
    i.EXTINT02_IrqHandler                    0x00001284   Section        0  hc32f460_ll_interrupts_share.o(i.EXTINT02_IrqHandler)
    i.EXTINT03_IrqHandler                    0x00001286   Section        0  hc32f460_ll_interrupts_share.o(i.EXTINT03_IrqHandler)
    i.EXTINT04_IrqHandler                    0x00001288   Section        0  hc32f460_ll_interrupts_share.o(i.EXTINT04_IrqHandler)
    i.EXTINT05_IrqHandler                    0x0000128a   Section        0  hc32f460_ll_interrupts_share.o(i.EXTINT05_IrqHandler)
    i.EXTINT06_IrqHandler                    0x0000128c   Section        0  hc32f460_ll_interrupts_share.o(i.EXTINT06_IrqHandler)
    i.EXTINT07_IrqHandler                    0x0000128e   Section        0  hc32f460_ll_interrupts_share.o(i.EXTINT07_IrqHandler)
    i.EXTINT08_IrqHandler                    0x00001290   Section        0  hc32f460_ll_interrupts_share.o(i.EXTINT08_IrqHandler)
    i.EXTINT09_IrqHandler                    0x00001292   Section        0  hc32f460_ll_interrupts_share.o(i.EXTINT09_IrqHandler)
    i.EXTINT10_IrqHandler                    0x00001294   Section        0  hc32f460_ll_interrupts_share.o(i.EXTINT10_IrqHandler)
    i.EXTINT11_IrqHandler                    0x00001296   Section        0  hc32f460_ll_interrupts_share.o(i.EXTINT11_IrqHandler)
    i.EXTINT12_IrqHandler                    0x00001298   Section        0  hc32f460_ll_interrupts_share.o(i.EXTINT12_IrqHandler)
    i.EXTINT13_IrqHandler                    0x0000129a   Section        0  hc32f460_ll_interrupts_share.o(i.EXTINT13_IrqHandler)
    i.EXTINT14_IrqHandler                    0x0000129c   Section        0  hc32f460_ll_interrupts_share.o(i.EXTINT14_IrqHandler)
    i.EXTINT15_IrqHandler                    0x0000129e   Section        0  hc32f460_ll_interrupts_share.o(i.EXTINT15_IrqHandler)
    i.FCG_Fcg1PeriphClockCmd                 0x000012a0   Section        0  hc32_ll_fcg.o(i.FCG_Fcg1PeriphClockCmd)
    i.FCG_Fcg2PeriphClockCmd                 0x00001314   Section        0  hc32_ll_fcg.o(i.FCG_Fcg2PeriphClockCmd)
    i.FCM_End_IrqHandler                     0x00001388   Section        0  hc32f460_ll_interrupts_share.o(i.FCM_End_IrqHandler)
    i.FCM_Error_IrqHandler                   0x0000138a   Section        0  hc32f460_ll_interrupts_share.o(i.FCM_Error_IrqHandler)
    i.FCM_Ovf_IrqHandler                     0x0000138c   Section        0  hc32f460_ll_interrupts_share.o(i.FCM_Ovf_IrqHandler)
    i.GPIO_Init                              0x00001390   Section        0  hc32_ll_gpio.o(i.GPIO_Init)
    i.GPIO_ResetPins                         0x00001580   Section        0  hc32_ll_gpio.o(i.GPIO_ResetPins)
    i.GPIO_SetFunc                           0x000015f4   Section        0  hc32_ll_gpio.o(i.GPIO_SetFunc)
    i.GPIO_SetPins                           0x000016d0   Section        0  hc32_ll_gpio.o(i.GPIO_SetPins)
    i.GPIO_SetReadWaitCycle                  0x00001744   Section        0  hc32_ll_gpio.o(i.GPIO_SetReadWaitCycle)
    i.GPIO_StructInit                        0x000017c0   Section        0  hc32_ll_gpio.o(i.GPIO_StructInit)
    i.I2C1_EE_IrqHandler                     0x000017e0   Section        0  hc32f460_ll_interrupts_share.o(i.I2C1_EE_IrqHandler)
    i.I2C1_RxFull_IrqHandler                 0x000017e2   Section        0  hc32f460_ll_interrupts_share.o(i.I2C1_RxFull_IrqHandler)
    i.I2C1_TxComplete_IrqHandler             0x000017e4   Section        0  hc32f460_ll_interrupts_share.o(i.I2C1_TxComplete_IrqHandler)
    i.I2C1_TxEmpty_IrqHandler                0x000017e6   Section        0  hc32f460_ll_interrupts_share.o(i.I2C1_TxEmpty_IrqHandler)
    i.I2C2_EE_IrqHandler                     0x000017e8   Section        0  hc32f460_ll_interrupts_share.o(i.I2C2_EE_IrqHandler)
    i.I2C2_RxFull_IrqHandler                 0x000017ea   Section        0  hc32f460_ll_interrupts_share.o(i.I2C2_RxFull_IrqHandler)
    i.I2C2_TxComplete_IrqHandler             0x000017ec   Section        0  hc32f460_ll_interrupts_share.o(i.I2C2_TxComplete_IrqHandler)
    i.I2C2_TxEmpty_IrqHandler                0x000017ee   Section        0  hc32f460_ll_interrupts_share.o(i.I2C2_TxEmpty_IrqHandler)
    i.I2C3_EE_IrqHandler                     0x000017f0   Section        0  hc32f460_ll_interrupts_share.o(i.I2C3_EE_IrqHandler)
    i.I2C3_RxFull_IrqHandler                 0x000017f2   Section        0  hc32f460_ll_interrupts_share.o(i.I2C3_RxFull_IrqHandler)
    i.I2C3_TxComplete_IrqHandler             0x000017f4   Section        0  hc32f460_ll_interrupts_share.o(i.I2C3_TxComplete_IrqHandler)
    i.I2C3_TxEmpty_IrqHandler                0x000017f6   Section        0  hc32f460_ll_interrupts_share.o(i.I2C3_TxEmpty_IrqHandler)
    i.I2S1_Error_IrqHandler                  0x000017f8   Section        0  hc32f460_ll_interrupts_share.o(i.I2S1_Error_IrqHandler)
    i.I2S1_Rx_IrqHandler                     0x000017fa   Section        0  hc32f460_ll_interrupts_share.o(i.I2S1_Rx_IrqHandler)
    i.I2S1_Tx_IrqHandler                     0x000017fc   Section        0  hc32f460_ll_interrupts_share.o(i.I2S1_Tx_IrqHandler)
    i.I2S2_Error_IrqHandler                  0x000017fe   Section        0  hc32f460_ll_interrupts_share.o(i.I2S2_Error_IrqHandler)
    i.I2S2_Rx_IrqHandler                     0x00001800   Section        0  hc32f460_ll_interrupts_share.o(i.I2S2_Rx_IrqHandler)
    i.I2S2_Tx_IrqHandler                     0x00001802   Section        0  hc32f460_ll_interrupts_share.o(i.I2S2_Tx_IrqHandler)
    i.I2S3_Error_IrqHandler                  0x00001804   Section        0  hc32f460_ll_interrupts_share.o(i.I2S3_Error_IrqHandler)
    i.I2S3_Rx_IrqHandler                     0x00001806   Section        0  hc32f460_ll_interrupts_share.o(i.I2S3_Rx_IrqHandler)
    i.I2S3_Tx_IrqHandler                     0x00001808   Section        0  hc32f460_ll_interrupts_share.o(i.I2S3_Tx_IrqHandler)
    i.I2S4_Error_IrqHandler                  0x0000180a   Section        0  hc32f460_ll_interrupts_share.o(i.I2S4_Error_IrqHandler)
    i.I2S4_Rx_IrqHandler                     0x0000180c   Section        0  hc32f460_ll_interrupts_share.o(i.I2S4_Rx_IrqHandler)
    i.I2S4_Tx_IrqHandler                     0x0000180e   Section        0  hc32f460_ll_interrupts_share.o(i.I2S4_Tx_IrqHandler)
    i.INTC_IrqSignIn                         0x00001810   Section        0  hc32_ll_interrupts.o(i.INTC_IrqSignIn)
    i.INT_SRC_TMRA_1_OVF_IrqCallback         0x000018e0   Section        0  tim.o(i.INT_SRC_TMRA_1_OVF_IrqCallback)
    INT_SRC_TMRA_1_OVF_IrqCallback           0x000018e1   Thumb Code    46  tim.o(i.INT_SRC_TMRA_1_OVF_IrqCallback)
    i.INT_SRC_TMRA_3_CMP_IrqCallback         0x0000191c   Section        0  tim.o(i.INT_SRC_TMRA_3_CMP_IrqCallback)
    INT_SRC_TMRA_3_CMP_IrqCallback           0x0000191d   Thumb Code    28  tim.o(i.INT_SRC_TMRA_3_CMP_IrqCallback)
    i.INT_SRC_TMRA_3_OVF_IrqCallback         0x00001940   Section        0  tim.o(i.INT_SRC_TMRA_3_OVF_IrqCallback)
    INT_SRC_TMRA_3_OVF_IrqCallback           0x00001941   Thumb Code     2  tim.o(i.INT_SRC_TMRA_3_OVF_IrqCallback)
    i.IRQ000_Handler                         0x00001944   Section        0  hc32_ll_interrupts.o(i.IRQ000_Handler)
    i.IRQ001_Handler                         0x00001958   Section        0  hc32_ll_interrupts.o(i.IRQ001_Handler)
    i.IRQ002_Handler                         0x0000196c   Section        0  hc32_ll_interrupts.o(i.IRQ002_Handler)
    i.IRQ003_Handler                         0x00001980   Section        0  hc32_ll_interrupts.o(i.IRQ003_Handler)
    i.IRQ004_Handler                         0x00001994   Section        0  hc32_ll_interrupts.o(i.IRQ004_Handler)
    i.IRQ005_Handler                         0x000019a8   Section        0  hc32_ll_interrupts.o(i.IRQ005_Handler)
    i.IRQ006_Handler                         0x000019bc   Section        0  hc32_ll_interrupts.o(i.IRQ006_Handler)
    i.IRQ007_Handler                         0x000019d0   Section        0  hc32_ll_interrupts.o(i.IRQ007_Handler)
    i.IRQ008_Handler                         0x000019e4   Section        0  hc32_ll_interrupts.o(i.IRQ008_Handler)
    i.IRQ009_Handler                         0x000019f8   Section        0  hc32_ll_interrupts.o(i.IRQ009_Handler)
    i.IRQ010_Handler                         0x00001a0c   Section        0  hc32_ll_interrupts.o(i.IRQ010_Handler)
    i.IRQ011_Handler                         0x00001a20   Section        0  hc32_ll_interrupts.o(i.IRQ011_Handler)
    i.IRQ012_Handler                         0x00001a34   Section        0  hc32_ll_interrupts.o(i.IRQ012_Handler)
    i.IRQ013_Handler                         0x00001a48   Section        0  hc32_ll_interrupts.o(i.IRQ013_Handler)
    i.IRQ014_Handler                         0x00001a5c   Section        0  hc32_ll_interrupts.o(i.IRQ014_Handler)
    i.IRQ015_Handler                         0x00001a70   Section        0  hc32_ll_interrupts.o(i.IRQ015_Handler)
    i.IRQ016_Handler                         0x00001a84   Section        0  hc32_ll_interrupts.o(i.IRQ016_Handler)
    i.IRQ017_Handler                         0x00001a98   Section        0  hc32_ll_interrupts.o(i.IRQ017_Handler)
    i.IRQ018_Handler                         0x00001aac   Section        0  hc32_ll_interrupts.o(i.IRQ018_Handler)
    i.IRQ019_Handler                         0x00001ac0   Section        0  hc32_ll_interrupts.o(i.IRQ019_Handler)
    i.IRQ020_Handler                         0x00001ad4   Section        0  hc32_ll_interrupts.o(i.IRQ020_Handler)
    i.IRQ021_Handler                         0x00001ae8   Section        0  hc32_ll_interrupts.o(i.IRQ021_Handler)
    i.IRQ022_Handler                         0x00001afc   Section        0  hc32_ll_interrupts.o(i.IRQ022_Handler)
    i.IRQ023_Handler                         0x00001b10   Section        0  hc32_ll_interrupts.o(i.IRQ023_Handler)
    i.IRQ024_Handler                         0x00001b24   Section        0  hc32_ll_interrupts.o(i.IRQ024_Handler)
    i.IRQ025_Handler                         0x00001b38   Section        0  hc32_ll_interrupts.o(i.IRQ025_Handler)
    i.IRQ026_Handler                         0x00001b4c   Section        0  hc32_ll_interrupts.o(i.IRQ026_Handler)
    i.IRQ027_Handler                         0x00001b60   Section        0  hc32_ll_interrupts.o(i.IRQ027_Handler)
    i.IRQ028_Handler                         0x00001b74   Section        0  hc32_ll_interrupts.o(i.IRQ028_Handler)
    i.IRQ029_Handler                         0x00001b88   Section        0  hc32_ll_interrupts.o(i.IRQ029_Handler)
    i.IRQ030_Handler                         0x00001b9c   Section        0  hc32_ll_interrupts.o(i.IRQ030_Handler)
    i.IRQ031_Handler                         0x00001bb0   Section        0  hc32_ll_interrupts.o(i.IRQ031_Handler)
    i.IRQ032_Handler                         0x00001bc4   Section        0  hc32_ll_interrupts.o(i.IRQ032_Handler)
    i.IRQ033_Handler                         0x00001bd8   Section        0  hc32_ll_interrupts.o(i.IRQ033_Handler)
    i.IRQ034_Handler                         0x00001bec   Section        0  hc32_ll_interrupts.o(i.IRQ034_Handler)
    i.IRQ035_Handler                         0x00001c00   Section        0  hc32_ll_interrupts.o(i.IRQ035_Handler)
    i.IRQ036_Handler                         0x00001c14   Section        0  hc32_ll_interrupts.o(i.IRQ036_Handler)
    i.IRQ037_Handler                         0x00001c28   Section        0  hc32_ll_interrupts.o(i.IRQ037_Handler)
    i.IRQ038_Handler                         0x00001c3c   Section        0  hc32_ll_interrupts.o(i.IRQ038_Handler)
    i.IRQ039_Handler                         0x00001c50   Section        0  hc32_ll_interrupts.o(i.IRQ039_Handler)
    i.IRQ040_Handler                         0x00001c64   Section        0  hc32_ll_interrupts.o(i.IRQ040_Handler)
    i.IRQ041_Handler                         0x00001c78   Section        0  hc32_ll_interrupts.o(i.IRQ041_Handler)
    i.IRQ042_Handler                         0x00001c8c   Section        0  hc32_ll_interrupts.o(i.IRQ042_Handler)
    i.IRQ043_Handler                         0x00001ca0   Section        0  hc32_ll_interrupts.o(i.IRQ043_Handler)
    i.IRQ044_Handler                         0x00001cb4   Section        0  hc32_ll_interrupts.o(i.IRQ044_Handler)
    i.IRQ045_Handler                         0x00001cc8   Section        0  hc32_ll_interrupts.o(i.IRQ045_Handler)
    i.IRQ046_Handler                         0x00001cdc   Section        0  hc32_ll_interrupts.o(i.IRQ046_Handler)
    i.IRQ047_Handler                         0x00001cf0   Section        0  hc32_ll_interrupts.o(i.IRQ047_Handler)
    i.IRQ048_Handler                         0x00001d04   Section        0  hc32_ll_interrupts.o(i.IRQ048_Handler)
    i.IRQ049_Handler                         0x00001d18   Section        0  hc32_ll_interrupts.o(i.IRQ049_Handler)
    i.IRQ050_Handler                         0x00001d2c   Section        0  hc32_ll_interrupts.o(i.IRQ050_Handler)
    i.IRQ051_Handler                         0x00001d40   Section        0  hc32_ll_interrupts.o(i.IRQ051_Handler)
    i.IRQ052_Handler                         0x00001d54   Section        0  hc32_ll_interrupts.o(i.IRQ052_Handler)
    i.IRQ053_Handler                         0x00001d68   Section        0  hc32_ll_interrupts.o(i.IRQ053_Handler)
    i.IRQ054_Handler                         0x00001d7c   Section        0  hc32_ll_interrupts.o(i.IRQ054_Handler)
    i.IRQ055_Handler                         0x00001d90   Section        0  hc32_ll_interrupts.o(i.IRQ055_Handler)
    i.IRQ056_Handler                         0x00001da4   Section        0  hc32_ll_interrupts.o(i.IRQ056_Handler)
    i.IRQ057_Handler                         0x00001db8   Section        0  hc32_ll_interrupts.o(i.IRQ057_Handler)
    i.IRQ058_Handler                         0x00001dcc   Section        0  hc32_ll_interrupts.o(i.IRQ058_Handler)
    i.IRQ059_Handler                         0x00001de0   Section        0  hc32_ll_interrupts.o(i.IRQ059_Handler)
    i.IRQ060_Handler                         0x00001df4   Section        0  hc32_ll_interrupts.o(i.IRQ060_Handler)
    i.IRQ061_Handler                         0x00001e08   Section        0  hc32_ll_interrupts.o(i.IRQ061_Handler)
    i.IRQ062_Handler                         0x00001e1c   Section        0  hc32_ll_interrupts.o(i.IRQ062_Handler)
    i.IRQ063_Handler                         0x00001e30   Section        0  hc32_ll_interrupts.o(i.IRQ063_Handler)
    i.IRQ064_Handler                         0x00001e44   Section        0  hc32_ll_interrupts.o(i.IRQ064_Handler)
    i.IRQ065_Handler                         0x00001e58   Section        0  hc32_ll_interrupts.o(i.IRQ065_Handler)
    i.IRQ066_Handler                         0x00001e6c   Section        0  hc32_ll_interrupts.o(i.IRQ066_Handler)
    i.IRQ067_Handler                         0x00001e80   Section        0  hc32_ll_interrupts.o(i.IRQ067_Handler)
    i.IRQ068_Handler                         0x00001e94   Section        0  hc32_ll_interrupts.o(i.IRQ068_Handler)
    i.IRQ069_Handler                         0x00001ea8   Section        0  hc32_ll_interrupts.o(i.IRQ069_Handler)
    i.IRQ070_Handler                         0x00001ebc   Section        0  hc32_ll_interrupts.o(i.IRQ070_Handler)
    i.IRQ071_Handler                         0x00001ed0   Section        0  hc32_ll_interrupts.o(i.IRQ071_Handler)
    i.IRQ072_Handler                         0x00001ee4   Section        0  hc32_ll_interrupts.o(i.IRQ072_Handler)
    i.IRQ073_Handler                         0x00001ef8   Section        0  hc32_ll_interrupts.o(i.IRQ073_Handler)
    i.IRQ074_Handler                         0x00001f0c   Section        0  hc32_ll_interrupts.o(i.IRQ074_Handler)
    i.IRQ075_Handler                         0x00001f20   Section        0  hc32_ll_interrupts.o(i.IRQ075_Handler)
    i.IRQ076_Handler                         0x00001f34   Section        0  hc32_ll_interrupts.o(i.IRQ076_Handler)
    i.IRQ077_Handler                         0x00001f48   Section        0  hc32_ll_interrupts.o(i.IRQ077_Handler)
    i.IRQ078_Handler                         0x00001f5c   Section        0  hc32_ll_interrupts.o(i.IRQ078_Handler)
    i.IRQ079_Handler                         0x00001f70   Section        0  hc32_ll_interrupts.o(i.IRQ079_Handler)
    i.IRQ080_Handler                         0x00001f84   Section        0  hc32_ll_interrupts.o(i.IRQ080_Handler)
    i.IRQ081_Handler                         0x00001f98   Section        0  hc32_ll_interrupts.o(i.IRQ081_Handler)
    i.IRQ082_Handler                         0x00001fac   Section        0  hc32_ll_interrupts.o(i.IRQ082_Handler)
    i.IRQ083_Handler                         0x00001fc0   Section        0  hc32_ll_interrupts.o(i.IRQ083_Handler)
    i.IRQ084_Handler                         0x00001fd4   Section        0  hc32_ll_interrupts.o(i.IRQ084_Handler)
    i.IRQ085_Handler                         0x00001fe8   Section        0  hc32_ll_interrupts.o(i.IRQ085_Handler)
    i.IRQ086_Handler                         0x00001ffc   Section        0  hc32_ll_interrupts.o(i.IRQ086_Handler)
    i.IRQ087_Handler                         0x00002010   Section        0  hc32_ll_interrupts.o(i.IRQ087_Handler)
    i.IRQ088_Handler                         0x00002024   Section        0  hc32_ll_interrupts.o(i.IRQ088_Handler)
    i.IRQ089_Handler                         0x00002038   Section        0  hc32_ll_interrupts.o(i.IRQ089_Handler)
    i.IRQ090_Handler                         0x0000204c   Section        0  hc32_ll_interrupts.o(i.IRQ090_Handler)
    i.IRQ091_Handler                         0x00002060   Section        0  hc32_ll_interrupts.o(i.IRQ091_Handler)
    i.IRQ092_Handler                         0x00002074   Section        0  hc32_ll_interrupts.o(i.IRQ092_Handler)
    i.IRQ093_Handler                         0x00002088   Section        0  hc32_ll_interrupts.o(i.IRQ093_Handler)
    i.IRQ094_Handler                         0x0000209c   Section        0  hc32_ll_interrupts.o(i.IRQ094_Handler)
    i.IRQ095_Handler                         0x000020b0   Section        0  hc32_ll_interrupts.o(i.IRQ095_Handler)
    i.IRQ096_Handler                         0x000020c4   Section        0  hc32_ll_interrupts.o(i.IRQ096_Handler)
    i.IRQ097_Handler                         0x000020d8   Section        0  hc32_ll_interrupts.o(i.IRQ097_Handler)
    i.IRQ098_Handler                         0x000020ec   Section        0  hc32_ll_interrupts.o(i.IRQ098_Handler)
    i.IRQ099_Handler                         0x00002100   Section        0  hc32_ll_interrupts.o(i.IRQ099_Handler)
    i.IRQ100_Handler                         0x00002114   Section        0  hc32_ll_interrupts.o(i.IRQ100_Handler)
    i.IRQ101_Handler                         0x00002128   Section        0  hc32_ll_interrupts.o(i.IRQ101_Handler)
    i.IRQ102_Handler                         0x0000213c   Section        0  hc32_ll_interrupts.o(i.IRQ102_Handler)
    i.IRQ103_Handler                         0x00002150   Section        0  hc32_ll_interrupts.o(i.IRQ103_Handler)
    i.IRQ104_Handler                         0x00002164   Section        0  hc32_ll_interrupts.o(i.IRQ104_Handler)
    i.IRQ105_Handler                         0x00002178   Section        0  hc32_ll_interrupts.o(i.IRQ105_Handler)
    i.IRQ106_Handler                         0x0000218c   Section        0  hc32_ll_interrupts.o(i.IRQ106_Handler)
    i.IRQ107_Handler                         0x000021a0   Section        0  hc32_ll_interrupts.o(i.IRQ107_Handler)
    i.IRQ108_Handler                         0x000021b4   Section        0  hc32_ll_interrupts.o(i.IRQ108_Handler)
    i.IRQ109_Handler                         0x000021c8   Section        0  hc32_ll_interrupts.o(i.IRQ109_Handler)
    i.IRQ110_Handler                         0x000021dc   Section        0  hc32_ll_interrupts.o(i.IRQ110_Handler)
    i.IRQ111_Handler                         0x000021f0   Section        0  hc32_ll_interrupts.o(i.IRQ111_Handler)
    i.IRQ112_Handler                         0x00002204   Section        0  hc32_ll_interrupts.o(i.IRQ112_Handler)
    i.IRQ113_Handler                         0x00002218   Section        0  hc32_ll_interrupts.o(i.IRQ113_Handler)
    i.IRQ114_Handler                         0x0000222c   Section        0  hc32_ll_interrupts.o(i.IRQ114_Handler)
    i.IRQ115_Handler                         0x00002240   Section        0  hc32_ll_interrupts.o(i.IRQ115_Handler)
    i.IRQ116_Handler                         0x00002254   Section        0  hc32_ll_interrupts.o(i.IRQ116_Handler)
    i.IRQ117_Handler                         0x00002268   Section        0  hc32_ll_interrupts.o(i.IRQ117_Handler)
    i.IRQ118_Handler                         0x0000227c   Section        0  hc32_ll_interrupts.o(i.IRQ118_Handler)
    i.IRQ119_Handler                         0x00002290   Section        0  hc32_ll_interrupts.o(i.IRQ119_Handler)
    i.IRQ120_Handler                         0x000022a4   Section        0  hc32_ll_interrupts.o(i.IRQ120_Handler)
    i.IRQ121_Handler                         0x000022b8   Section        0  hc32_ll_interrupts.o(i.IRQ121_Handler)
    i.IRQ122_Handler                         0x000022cc   Section        0  hc32_ll_interrupts.o(i.IRQ122_Handler)
    i.IRQ123_Handler                         0x000022e0   Section        0  hc32_ll_interrupts.o(i.IRQ123_Handler)
    i.IRQ124_Handler                         0x000022f4   Section        0  hc32_ll_interrupts.o(i.IRQ124_Handler)
    i.IRQ125_Handler                         0x00002308   Section        0  hc32_ll_interrupts.o(i.IRQ125_Handler)
    i.IRQ126_Handler                         0x0000231c   Section        0  hc32_ll_interrupts.o(i.IRQ126_Handler)
    i.IRQ127_Handler                         0x00002330   Section        0  hc32_ll_interrupts.o(i.IRQ127_Handler)
    i.IRQ128_Handler                         0x00002344   Section        0  hc32f460_ll_interrupts_share.o(i.IRQ128_Handler)
    i.IRQ129_Handler                         0x00002498   Section        0  hc32f460_ll_interrupts_share.o(i.IRQ129_Handler)
    i.IRQ130_Handler                         0x00002930   Section        0  hc32f460_ll_interrupts_share.o(i.IRQ130_Handler)
    i.IRQ131_Handler                         0x00002a18   Section        0  hc32f460_ll_interrupts_share.o(i.IRQ131_Handler)
    i.IRQ132_Handler                         0x00002ce0   Section        0  hc32f460_ll_interrupts_share.o(i.IRQ132_Handler)
    i.IRQ136_Handler                         0x00002e60   Section        0  hc32f460_ll_interrupts_share.o(i.IRQ136_Handler)
    i.IRQ137_Handler                         0x000031a4   Section        0  hc32f460_ll_interrupts_share.o(i.IRQ137_Handler)
    i.IRQ138_Handler                         0x0000342c   Section        0  hc32f460_ll_interrupts_share.o(i.IRQ138_Handler)
    i.IRQ139_Handler                         0x0000365c   Section        0  hc32f460_ll_interrupts_share.o(i.IRQ139_Handler)
    i.IRQ140_Handler                         0x00003780   Section        0  hc32f460_ll_interrupts_share.o(i.IRQ140_Handler)
    i.IRQ141_Handler                         0x00003994   Section        0  hc32f460_ll_interrupts_share.o(i.IRQ141_Handler)
    i.IRQ142_Handler                         0x00003bfc   Section        0  hc32f460_ll_interrupts_share.o(i.IRQ142_Handler)
    i.IRQ143_Handler                         0x00003d08   Section        0  hc32f460_ll_interrupts_share.o(i.IRQ143_Handler)
    i.LL_PERIPH_WE                           0x00003e14   Section        0  hc32_ll.o(i.LL_PERIPH_WE)
    i.LL_PERIPH_WP                           0x00003ea4   Section        0  hc32_ll.o(i.LL_PERIPH_WP)
    i.PWC_HighSpeedToHighPerformance         0x00003f2c   Section        0  hc32_ll_pwc.o(i.PWC_HighSpeedToHighPerformance)
    i.PWC_LVD1_IrqHandler                    0x00003f90   Section        0  hc32f460_ll_interrupts_share.o(i.PWC_LVD1_IrqHandler)
    i.PWC_LVD2_IrqHandler                    0x00003f92   Section        0  hc32f460_ll_interrupts_share.o(i.PWC_LVD2_IrqHandler)
    i.PWC_REG_Lock                           0x00003f94   Section        0  hc32_ll.o(i.PWC_REG_Lock)
    PWC_REG_Lock                             0x00003f95   Thumb Code    18  hc32_ll.o(i.PWC_REG_Lock)
    i.PWC_REG_Unlock                         0x00003fb0   Section        0  hc32_ll.o(i.PWC_REG_Unlock)
    PWC_REG_Unlock                           0x00003fb1   Thumb Code    14  hc32_ll.o(i.PWC_REG_Unlock)
    i.PWC_WakeupTimer_IrqHandler             0x00003fc8   Section        0  hc32f460_ll_interrupts_share.o(i.PWC_WakeupTimer_IrqHandler)
    i.QSPI_Error_IrqHandler                  0x00003fca   Section        0  hc32f460_ll_interrupts_share.o(i.QSPI_Error_IrqHandler)
    i.SDIOC1_IrqHandler                      0x00003fcc   Section        0  hc32f460_ll_interrupts_share.o(i.SDIOC1_IrqHandler)
    i.SDIOC2_IrqHandler                      0x00003fce   Section        0  hc32f460_ll_interrupts_share.o(i.SDIOC2_IrqHandler)
    i.SPI1_Error_IrqHandler                  0x00003fd0   Section        0  hc32f460_ll_interrupts_share.o(i.SPI1_Error_IrqHandler)
    i.SPI1_Idle_IrqHandler                   0x00003fd2   Section        0  hc32f460_ll_interrupts_share.o(i.SPI1_Idle_IrqHandler)
    i.SPI1_RxFull_IrqHandler                 0x00003fd4   Section        0  hc32f460_ll_interrupts_share.o(i.SPI1_RxFull_IrqHandler)
    i.SPI1_TxEmpty_IrqHandler                0x00003fd6   Section        0  hc32f460_ll_interrupts_share.o(i.SPI1_TxEmpty_IrqHandler)
    i.SPI2_Error_IrqHandler                  0x00003fd8   Section        0  hc32f460_ll_interrupts_share.o(i.SPI2_Error_IrqHandler)
    i.SPI2_Idle_IrqHandler                   0x00003fda   Section        0  hc32f460_ll_interrupts_share.o(i.SPI2_Idle_IrqHandler)
    i.SPI2_RxFull_IrqHandler                 0x00003fdc   Section        0  hc32f460_ll_interrupts_share.o(i.SPI2_RxFull_IrqHandler)
    i.SPI2_TxEmpty_IrqHandler                0x00003fde   Section        0  hc32f460_ll_interrupts_share.o(i.SPI2_TxEmpty_IrqHandler)
    i.SPI3_Error_IrqHandler                  0x00003fe0   Section        0  hc32f460_ll_interrupts_share.o(i.SPI3_Error_IrqHandler)
    i.SPI3_Idle_IrqHandler                   0x00003fe2   Section        0  hc32f460_ll_interrupts_share.o(i.SPI3_Idle_IrqHandler)
    i.SPI3_RxFull_IrqHandler                 0x00003fe4   Section        0  hc32f460_ll_interrupts_share.o(i.SPI3_RxFull_IrqHandler)
    i.SPI3_TxEmpty_IrqHandler                0x00003fe6   Section        0  hc32f460_ll_interrupts_share.o(i.SPI3_TxEmpty_IrqHandler)
    i.SPI4_Error_IrqHandler                  0x00003fe8   Section        0  hc32f460_ll_interrupts_share.o(i.SPI4_Error_IrqHandler)
    i.SPI4_Idle_IrqHandler                   0x00003fea   Section        0  hc32f460_ll_interrupts_share.o(i.SPI4_Idle_IrqHandler)
    i.SPI4_RxFull_IrqHandler                 0x00003fec   Section        0  hc32f460_ll_interrupts_share.o(i.SPI4_RxFull_IrqHandler)
    i.SPI4_TxEmpty_IrqHandler                0x00003fee   Section        0  hc32f460_ll_interrupts_share.o(i.SPI4_TxEmpty_IrqHandler)
    i.SPI_Cmd                                0x00003ff0   Section        0  hc32_ll_spi.o(i.SPI_Cmd)
    i.SPI_DelayStructInit                    0x00004094   Section        0  hc32_ll_spi.o(i.SPI_DelayStructInit)
    i.SPI_DelayTimeConfig                    0x000040a8   Section        0  hc32_ll_spi.o(i.SPI_DelayTimeConfig)
    i.SPI_Init                               0x00004280   Section        0  hc32_ll_spi.o(i.SPI_Init)
    i.SPI_ParityCheckCmd                     0x00004530   Section        0  hc32_ll_spi.o(i.SPI_ParityCheckCmd)
    i.SPI_SSPinSelect                        0x000045b8   Section        0  hc32_ll_spi.o(i.SPI_SSPinSelect)
    i.SPI_SetLoopbackMode                    0x0000467c   Section        0  hc32_ll_spi.o(i.SPI_SetLoopbackMode)
    i.SPI_SetSSValidLevel                    0x00004700   Section        0  hc32_ll_spi.o(i.SPI_SetSSValidLevel)
    i.SPI_StructInit                         0x000047b0   Section        0  hc32_ll_spi.o(i.SPI_StructInit)
    i.SRAM_SetWaitCycle                      0x000047e0   Section        0  hc32_ll_sram.o(i.SRAM_SetWaitCycle)
    i.SWDT_IrqHandler                        0x000048b8   Section        0  hc32f460_ll_interrupts_share.o(i.SWDT_IrqHandler)
    i.SetSysClockDiv                         0x000048bc   Section        0  hc32_ll_clk.o(i.SetSysClockDiv)
    SetSysClockDiv                           0x000048bd   Thumb Code   746  hc32_ll_clk.o(i.SetSysClockDiv)
    i.SetSysClockSrc                         0x00004bd8   Section        0  hc32_ll_clk.o(i.SetSysClockSrc)
    SetSysClockSrc                           0x00004bd9   Thumb Code   198  hc32_ll_clk.o(i.SetSysClockSrc)
    i.Speed_Decision_S                       0x00004ccc   Section        0  control_step.o(i.Speed_Decision_S)
    i.Stepper_Move_S                         0x00004e10   Section        0  control_step.o(i.Stepper_Move_S)
    i.Stepper_start                          0x00004f08   Section        0  control_step.o(i.Stepper_start)
    i.SystemCoreClockUpdate                  0x00004f14   Section        0  system_hc32f460.o(i.SystemCoreClockUpdate)
    i.SystemInit                             0x00004fe0   Section        0  system_hc32f460.o(i.SystemInit)
    i.TMR0_1_CmpA_IrqHandler                 0x00004ff4   Section        0  hc32f460_ll_interrupts_share.o(i.TMR0_1_CmpA_IrqHandler)
    i.TMR0_1_CmpB_IrqHandler                 0x00004ff6   Section        0  hc32f460_ll_interrupts_share.o(i.TMR0_1_CmpB_IrqHandler)
    i.TMR0_2_CmpA_IrqHandler                 0x00004ff8   Section        0  hc32f460_ll_interrupts_share.o(i.TMR0_2_CmpA_IrqHandler)
    i.TMR0_2_CmpB_IrqHandler                 0x00004ffa   Section        0  hc32f460_ll_interrupts_share.o(i.TMR0_2_CmpB_IrqHandler)
    i.TMR4_1_GCmpUH_IrqHandler               0x00004ffc   Section        0  hc32f460_ll_interrupts_share.o(i.TMR4_1_GCmpUH_IrqHandler)
    i.TMR4_1_GCmpUL_IrqHandler               0x00004ffe   Section        0  hc32f460_ll_interrupts_share.o(i.TMR4_1_GCmpUL_IrqHandler)
    i.TMR4_1_GCmpVH_IrqHandler               0x00005000   Section        0  hc32f460_ll_interrupts_share.o(i.TMR4_1_GCmpVH_IrqHandler)
    i.TMR4_1_GCmpVL_IrqHandler               0x00005002   Section        0  hc32f460_ll_interrupts_share.o(i.TMR4_1_GCmpVL_IrqHandler)
    i.TMR4_1_GCmpWH_IrqHandler               0x00005004   Section        0  hc32f460_ll_interrupts_share.o(i.TMR4_1_GCmpWH_IrqHandler)
    i.TMR4_1_GCmpWL_IrqHandler               0x00005006   Section        0  hc32f460_ll_interrupts_share.o(i.TMR4_1_GCmpWL_IrqHandler)
    i.TMR4_1_GOvf_IrqHandler                 0x00005008   Section        0  hc32f460_ll_interrupts_share.o(i.TMR4_1_GOvf_IrqHandler)
    i.TMR4_1_GUdf_IrqHandler                 0x0000500a   Section        0  hc32f460_ll_interrupts_share.o(i.TMR4_1_GUdf_IrqHandler)
    i.TMR4_1_ReloadU_IrqHandler              0x0000500c   Section        0  hc32f460_ll_interrupts_share.o(i.TMR4_1_ReloadU_IrqHandler)
    i.TMR4_1_ReloadV_IrqHandler              0x0000500e   Section        0  hc32f460_ll_interrupts_share.o(i.TMR4_1_ReloadV_IrqHandler)
    i.TMR4_1_ReloadW_IrqHandler              0x00005010   Section        0  hc32f460_ll_interrupts_share.o(i.TMR4_1_ReloadW_IrqHandler)
    i.TMR4_2_GCmpUH_IrqHandler               0x00005012   Section        0  hc32f460_ll_interrupts_share.o(i.TMR4_2_GCmpUH_IrqHandler)
    i.TMR4_2_GCmpUL_IrqHandler               0x00005014   Section        0  hc32f460_ll_interrupts_share.o(i.TMR4_2_GCmpUL_IrqHandler)
    i.TMR4_2_GCmpVH_IrqHandler               0x00005016   Section        0  hc32f460_ll_interrupts_share.o(i.TMR4_2_GCmpVH_IrqHandler)
    i.TMR4_2_GCmpVL_IrqHandler               0x00005018   Section        0  hc32f460_ll_interrupts_share.o(i.TMR4_2_GCmpVL_IrqHandler)
    i.TMR4_2_GCmpWH_IrqHandler               0x0000501a   Section        0  hc32f460_ll_interrupts_share.o(i.TMR4_2_GCmpWH_IrqHandler)
    i.TMR4_2_GCmpWL_IrqHandler               0x0000501c   Section        0  hc32f460_ll_interrupts_share.o(i.TMR4_2_GCmpWL_IrqHandler)
    i.TMR4_2_GOvf_IrqHandler                 0x0000501e   Section        0  hc32f460_ll_interrupts_share.o(i.TMR4_2_GOvf_IrqHandler)
    i.TMR4_2_GUdf_IrqHandler                 0x00005020   Section        0  hc32f460_ll_interrupts_share.o(i.TMR4_2_GUdf_IrqHandler)
    i.TMR4_2_ReloadU_IrqHandler              0x00005022   Section        0  hc32f460_ll_interrupts_share.o(i.TMR4_2_ReloadU_IrqHandler)
    i.TMR4_2_ReloadV_IrqHandler              0x00005024   Section        0  hc32f460_ll_interrupts_share.o(i.TMR4_2_ReloadV_IrqHandler)
    i.TMR4_2_ReloadW_IrqHandler              0x00005026   Section        0  hc32f460_ll_interrupts_share.o(i.TMR4_2_ReloadW_IrqHandler)
    i.TMR4_3_GCmpUH_IrqHandler               0x00005028   Section        0  hc32f460_ll_interrupts_share.o(i.TMR4_3_GCmpUH_IrqHandler)
    i.TMR4_3_GCmpUL_IrqHandler               0x0000502a   Section        0  hc32f460_ll_interrupts_share.o(i.TMR4_3_GCmpUL_IrqHandler)
    i.TMR4_3_GCmpVH_IrqHandler               0x0000502c   Section        0  hc32f460_ll_interrupts_share.o(i.TMR4_3_GCmpVH_IrqHandler)
    i.TMR4_3_GCmpVL_IrqHandler               0x0000502e   Section        0  hc32f460_ll_interrupts_share.o(i.TMR4_3_GCmpVL_IrqHandler)
    i.TMR4_3_GCmpWH_IrqHandler               0x00005030   Section        0  hc32f460_ll_interrupts_share.o(i.TMR4_3_GCmpWH_IrqHandler)
    i.TMR4_3_GCmpWL_IrqHandler               0x00005032   Section        0  hc32f460_ll_interrupts_share.o(i.TMR4_3_GCmpWL_IrqHandler)
    i.TMR4_3_GOvf_IrqHandler                 0x00005034   Section        0  hc32f460_ll_interrupts_share.o(i.TMR4_3_GOvf_IrqHandler)
    i.TMR4_3_GUdf_IrqHandler                 0x00005036   Section        0  hc32f460_ll_interrupts_share.o(i.TMR4_3_GUdf_IrqHandler)
    i.TMR4_3_ReloadU_IrqHandler              0x00005038   Section        0  hc32f460_ll_interrupts_share.o(i.TMR4_3_ReloadU_IrqHandler)
    i.TMR4_3_ReloadV_IrqHandler              0x0000503a   Section        0  hc32f460_ll_interrupts_share.o(i.TMR4_3_ReloadV_IrqHandler)
    i.TMR4_3_ReloadW_IrqHandler              0x0000503c   Section        0  hc32f460_ll_interrupts_share.o(i.TMR4_3_ReloadW_IrqHandler)
    i.TMR6_1_GCmpA_IrqHandler                0x0000503e   Section        0  hc32f460_ll_interrupts_share.o(i.TMR6_1_GCmpA_IrqHandler)
    i.TMR6_1_GCmpB_IrqHandler                0x00005040   Section        0  hc32f460_ll_interrupts_share.o(i.TMR6_1_GCmpB_IrqHandler)
    i.TMR6_1_GCmpC_IrqHandler                0x00005042   Section        0  hc32f460_ll_interrupts_share.o(i.TMR6_1_GCmpC_IrqHandler)
    i.TMR6_1_GCmpD_IrqHandler                0x00005044   Section        0  hc32f460_ll_interrupts_share.o(i.TMR6_1_GCmpD_IrqHandler)
    i.TMR6_1_GCmpE_IrqHandler                0x00005046   Section        0  hc32f460_ll_interrupts_share.o(i.TMR6_1_GCmpE_IrqHandler)
    i.TMR6_1_GCmpF_IrqHandler                0x00005048   Section        0  hc32f460_ll_interrupts_share.o(i.TMR6_1_GCmpF_IrqHandler)
    i.TMR6_1_GDte_IrqHandler                 0x0000504a   Section        0  hc32f460_ll_interrupts_share.o(i.TMR6_1_GDte_IrqHandler)
    i.TMR6_1_GOvf_IrqHandler                 0x0000504c   Section        0  hc32f460_ll_interrupts_share.o(i.TMR6_1_GOvf_IrqHandler)
    i.TMR6_1_GUdf_IrqHandler                 0x0000504e   Section        0  hc32f460_ll_interrupts_share.o(i.TMR6_1_GUdf_IrqHandler)
    i.TMR6_1_SCmpA_IrqHandler                0x00005050   Section        0  hc32f460_ll_interrupts_share.o(i.TMR6_1_SCmpA_IrqHandler)
    i.TMR6_1_SCmpB_IrqHandler                0x00005052   Section        0  hc32f460_ll_interrupts_share.o(i.TMR6_1_SCmpB_IrqHandler)
    i.TMR6_2_GCmpA_IrqHandler                0x00005054   Section        0  hc32f460_ll_interrupts_share.o(i.TMR6_2_GCmpA_IrqHandler)
    i.TMR6_2_GCmpB_IrqHandler                0x00005056   Section        0  hc32f460_ll_interrupts_share.o(i.TMR6_2_GCmpB_IrqHandler)
    i.TMR6_2_GCmpC_IrqHandler                0x00005058   Section        0  hc32f460_ll_interrupts_share.o(i.TMR6_2_GCmpC_IrqHandler)
    i.TMR6_2_GCmpD_IrqHandler                0x0000505a   Section        0  hc32f460_ll_interrupts_share.o(i.TMR6_2_GCmpD_IrqHandler)
    i.TMR6_2_GCmpE_IrqHandler                0x0000505c   Section        0  hc32f460_ll_interrupts_share.o(i.TMR6_2_GCmpE_IrqHandler)
    i.TMR6_2_GCmpF_IrqHandler                0x0000505e   Section        0  hc32f460_ll_interrupts_share.o(i.TMR6_2_GCmpF_IrqHandler)
    i.TMR6_2_GDte_IrqHandler                 0x00005060   Section        0  hc32f460_ll_interrupts_share.o(i.TMR6_2_GDte_IrqHandler)
    i.TMR6_2_GOvf_IrqHandler                 0x00005062   Section        0  hc32f460_ll_interrupts_share.o(i.TMR6_2_GOvf_IrqHandler)
    i.TMR6_2_GUdf_IrqHandler                 0x00005064   Section        0  hc32f460_ll_interrupts_share.o(i.TMR6_2_GUdf_IrqHandler)
    i.TMR6_2_SCmpA_IrqHandler                0x00005066   Section        0  hc32f460_ll_interrupts_share.o(i.TMR6_2_SCmpA_IrqHandler)
    i.TMR6_2_SCmpB_IrqHandler                0x00005068   Section        0  hc32f460_ll_interrupts_share.o(i.TMR6_2_SCmpB_IrqHandler)
    i.TMR6_3_GCmpA_IrqHandler                0x0000506a   Section        0  hc32f460_ll_interrupts_share.o(i.TMR6_3_GCmpA_IrqHandler)
    i.TMR6_3_GCmpB_IrqHandler                0x0000506c   Section        0  hc32f460_ll_interrupts_share.o(i.TMR6_3_GCmpB_IrqHandler)
    i.TMR6_3_GCmpC_IrqHandler                0x0000506e   Section        0  hc32f460_ll_interrupts_share.o(i.TMR6_3_GCmpC_IrqHandler)
    i.TMR6_3_GCmpD_IrqHandler                0x00005070   Section        0  hc32f460_ll_interrupts_share.o(i.TMR6_3_GCmpD_IrqHandler)
    i.TMR6_3_GCmpE_IrqHandler                0x00005072   Section        0  hc32f460_ll_interrupts_share.o(i.TMR6_3_GCmpE_IrqHandler)
    i.TMR6_3_GCmpF_IrqHandler                0x00005074   Section        0  hc32f460_ll_interrupts_share.o(i.TMR6_3_GCmpF_IrqHandler)
    i.TMR6_3_GDte_IrqHandler                 0x00005076   Section        0  hc32f460_ll_interrupts_share.o(i.TMR6_3_GDte_IrqHandler)
    i.TMR6_3_GOvf_IrqHandler                 0x00005078   Section        0  hc32f460_ll_interrupts_share.o(i.TMR6_3_GOvf_IrqHandler)
    i.TMR6_3_GUdf_IrqHandler                 0x0000507a   Section        0  hc32f460_ll_interrupts_share.o(i.TMR6_3_GUdf_IrqHandler)
    i.TMR6_3_SCmpA_IrqHandler                0x0000507c   Section        0  hc32f460_ll_interrupts_share.o(i.TMR6_3_SCmpA_IrqHandler)
    i.TMR6_3_SCmpB_IrqHandler                0x0000507e   Section        0  hc32f460_ll_interrupts_share.o(i.TMR6_3_SCmpB_IrqHandler)
    i.TMRA_1_Cmp_IrqHandler                  0x00005080   Section        0  hc32f460_ll_interrupts_share.o(i.TMRA_1_Cmp_IrqHandler)
    i.TMRA_1_Ovf_IrqHandler                  0x00005082   Section        0  hc32f460_ll_interrupts_share.o(i.TMRA_1_Ovf_IrqHandler)
    i.TMRA_1_Udf_IrqHandler                  0x00005084   Section        0  hc32f460_ll_interrupts_share.o(i.TMRA_1_Udf_IrqHandler)
    i.TMRA_2_Cmp_IrqHandler                  0x00005086   Section        0  hc32f460_ll_interrupts_share.o(i.TMRA_2_Cmp_IrqHandler)
    i.TMRA_2_Ovf_IrqHandler                  0x00005088   Section        0  hc32f460_ll_interrupts_share.o(i.TMRA_2_Ovf_IrqHandler)
    i.TMRA_2_Udf_IrqHandler                  0x0000508a   Section        0  hc32f460_ll_interrupts_share.o(i.TMRA_2_Udf_IrqHandler)
    i.TMRA_3_Cmp_IrqHandler                  0x0000508c   Section        0  hc32f460_ll_interrupts_share.o(i.TMRA_3_Cmp_IrqHandler)
    i.TMRA_3_Ovf_IrqHandler                  0x0000508e   Section        0  hc32f460_ll_interrupts_share.o(i.TMRA_3_Ovf_IrqHandler)
    i.TMRA_3_Udf_IrqHandler                  0x00005090   Section        0  hc32f460_ll_interrupts_share.o(i.TMRA_3_Udf_IrqHandler)
    i.TMRA_4_Cmp_IrqHandler                  0x00005092   Section        0  hc32f460_ll_interrupts_share.o(i.TMRA_4_Cmp_IrqHandler)
    i.TMRA_4_Ovf_IrqHandler                  0x00005094   Section        0  hc32f460_ll_interrupts_share.o(i.TMRA_4_Ovf_IrqHandler)
    i.TMRA_4_Udf_IrqHandler                  0x00005096   Section        0  hc32f460_ll_interrupts_share.o(i.TMRA_4_Udf_IrqHandler)
    i.TMRA_5_Cmp_IrqHandler                  0x00005098   Section        0  hc32f460_ll_interrupts_share.o(i.TMRA_5_Cmp_IrqHandler)
    i.TMRA_5_Ovf_IrqHandler                  0x0000509a   Section        0  hc32f460_ll_interrupts_share.o(i.TMRA_5_Ovf_IrqHandler)
    i.TMRA_5_Udf_IrqHandler                  0x0000509c   Section        0  hc32f460_ll_interrupts_share.o(i.TMRA_5_Udf_IrqHandler)
    i.TMRA_6_Cmp_IrqHandler                  0x0000509e   Section        0  hc32f460_ll_interrupts_share.o(i.TMRA_6_Cmp_IrqHandler)
    i.TMRA_6_Ovf_IrqHandler                  0x000050a0   Section        0  hc32f460_ll_interrupts_share.o(i.TMRA_6_Ovf_IrqHandler)
    i.TMRA_6_Udf_IrqHandler                  0x000050a2   Section        0  hc32f460_ll_interrupts_share.o(i.TMRA_6_Udf_IrqHandler)
    i.TMRA_ClearStatus                       0x000050a4   Section        0  hc32_ll_tmra.o(i.TMRA_ClearStatus)
    i.TMRA_GetCountValue                     0x00005140   Section        0  hc32_ll_tmra.o(i.TMRA_GetCountValue)
    i.TMRA_Init                              0x000051b0   Section        0  hc32_ll_tmra.o(i.TMRA_Init)
    i.TMRA_IntCmd                            0x00005340   Section        0  hc32_ll_tmra.o(i.TMRA_IntCmd)
    i.TMRA_PWM_Init                          0x0000542c   Section        0  hc32_ll_tmra.o(i.TMRA_PWM_Init)
    i.TMRA_PWM_OutputCmd                     0x00005578   Section        0  hc32_ll_tmra.o(i.TMRA_PWM_OutputCmd)
    i.TMRA_PWM_StructInit                    0x0000561c   Section        0  hc32_ll_tmra.o(i.TMRA_PWM_StructInit)
    i.TMRA_SetCompareValue                   0x0000563c   Section        0  hc32_ll_tmra.o(i.TMRA_SetCompareValue)
    i.TMRA_SetCountValue                     0x000056c0   Section        0  hc32_ll_tmra.o(i.TMRA_SetCountValue)
    i.TMRA_SetFunc                           0x00005734   Section        0  hc32_ll_tmra.o(i.TMRA_SetFunc)
    i.TMRA_SetPeriodValue                    0x000057dc   Section        0  hc32_ll_tmra.o(i.TMRA_SetPeriodValue)
    i.TMRA_Start                             0x00005850   Section        0  hc32_ll_tmra.o(i.TMRA_Start)
    i.TMRA_StructInit                        0x000058cc   Section        0  hc32_ll_tmra.o(i.TMRA_StructInit)
    i.USART1_RxError_IrqHandler              0x000058f0   Section        0  hc32f460_ll_interrupts_share.o(i.USART1_RxError_IrqHandler)
    i.USART1_RxFull_IrqHandler               0x000058f2   Section        0  hc32f460_ll_interrupts_share.o(i.USART1_RxFull_IrqHandler)
    i.USART1_RxTO_IrqHandler                 0x000058f4   Section        0  hc32f460_ll_interrupts_share.o(i.USART1_RxTO_IrqHandler)
    i.USART1_TxComplete_IrqHandler           0x000058f6   Section        0  hc32f460_ll_interrupts_share.o(i.USART1_TxComplete_IrqHandler)
    i.USART1_TxEmpty_IrqHandler              0x000058f8   Section        0  hc32f460_ll_interrupts_share.o(i.USART1_TxEmpty_IrqHandler)
    i.USART2_RxError_IrqHandler              0x000058fa   Section        0  hc32f460_ll_interrupts_share.o(i.USART2_RxError_IrqHandler)
    i.USART2_RxFull_IrqHandler               0x000058fc   Section        0  hc32f460_ll_interrupts_share.o(i.USART2_RxFull_IrqHandler)
    i.USART2_RxTO_IrqHandler                 0x000058fe   Section        0  hc32f460_ll_interrupts_share.o(i.USART2_RxTO_IrqHandler)
    i.USART2_TxComplete_IrqHandler           0x00005900   Section        0  hc32f460_ll_interrupts_share.o(i.USART2_TxComplete_IrqHandler)
    i.USART2_TxEmpty_IrqHandler              0x00005902   Section        0  hc32f460_ll_interrupts_share.o(i.USART2_TxEmpty_IrqHandler)
    i.USART3_RxError_IrqHandler              0x00005904   Section        0  hc32f460_ll_interrupts_share.o(i.USART3_RxError_IrqHandler)
    i.USART3_RxFull_IrqHandler               0x00005906   Section        0  hc32f460_ll_interrupts_share.o(i.USART3_RxFull_IrqHandler)
    i.USART3_RxTO_IrqHandler                 0x00005908   Section        0  hc32f460_ll_interrupts_share.o(i.USART3_RxTO_IrqHandler)
    i.USART3_TxComplete_IrqHandler           0x0000590a   Section        0  hc32f460_ll_interrupts_share.o(i.USART3_TxComplete_IrqHandler)
    i.USART3_TxEmpty_IrqHandler              0x0000590c   Section        0  hc32f460_ll_interrupts_share.o(i.USART3_TxEmpty_IrqHandler)
    i.USART4_RxError_IrqHandler              0x0000590e   Section        0  hc32f460_ll_interrupts_share.o(i.USART4_RxError_IrqHandler)
    i.USART4_RxFull_IrqHandler               0x00005910   Section        0  hc32f460_ll_interrupts_share.o(i.USART4_RxFull_IrqHandler)
    i.USART4_RxTO_IrqHandler                 0x00005912   Section        0  hc32f460_ll_interrupts_share.o(i.USART4_RxTO_IrqHandler)
    i.USART4_TxComplete_IrqHandler           0x00005914   Section        0  hc32f460_ll_interrupts_share.o(i.USART4_TxComplete_IrqHandler)
    i.USART4_TxEmpty_IrqHandler              0x00005916   Section        0  hc32f460_ll_interrupts_share.o(i.USART4_TxEmpty_IrqHandler)
    i.USBFS_Global_IrqHandler                0x00005918   Section        0  hc32f460_ll_interrupts_share.o(i.USBFS_Global_IrqHandler)
    i.WDT_IrqHandler                         0x0000591a   Section        0  hc32f460_ll_interrupts_share.o(i.WDT_IrqHandler)
    i.__ARM_fpclassifyf                      0x0000591c   Section        0  fpclassifyf.o(i.__ARM_fpclassifyf)
    i.__NVIC_ClearPendingIRQ                 0x00005944   Section        0  tim.o(i.__NVIC_ClearPendingIRQ)
    __NVIC_ClearPendingIRQ                   0x00005945   Thumb Code    22  tim.o(i.__NVIC_ClearPendingIRQ)
    i.__NVIC_EnableIRQ                       0x00005960   Section        0  tim.o(i.__NVIC_EnableIRQ)
    __NVIC_EnableIRQ                         0x00005961   Thumb Code    34  tim.o(i.__NVIC_EnableIRQ)
    i.__NVIC_SetPriority                     0x00005984   Section        0  tim.o(i.__NVIC_SetPriority)
    __NVIC_SetPriority                       0x00005985   Thumb Code    32  tim.o(i.__NVIC_SetPriority)
    i.__mathlib_flt_infnan                   0x000059ac   Section        0  funder.o(i.__mathlib_flt_infnan)
    i.__mathlib_flt_overflow                 0x000059b2   Section        0  funder.o(i.__mathlib_flt_overflow)
    i.__mathlib_flt_underflow                0x000059bc   Section        0  funder.o(i.__mathlib_flt_underflow)
    i.__scatterload_copy                     0x000059c6   Section       14  handlers.o(i.__scatterload_copy)
    i.__scatterload_null                     0x000059d4   Section        2  handlers.o(i.__scatterload_null)
    i.__scatterload_zeroinit                 0x000059d6   Section       14  handlers.o(i.__scatterload_zeroinit)
    i.__set_errno                            0x000059e4   Section        0  errno.o(i.__set_errno)
    i.expf                                   0x000059f0   Section        0  expf.o(i.expf)
    i.main                                   0x00005b60   Section        0  main.o(i.main)
    .constdata                               0x00005bd4   Section       48  expf.o(.constdata)
    twotokover4top                           0x00005bd4   Data          16  expf.o(.constdata)
    twotokover4bot                           0x00005be4   Data          16  expf.o(.constdata)
    twotokover4all                           0x00005bf4   Data          16  expf.o(.constdata)
    .data                                    0x1fff8000   Section       20  control_step.o(.data)
    i                                        0x1fff800e   Data           1  control_step.o(.data)
    index                                    0x1fff8010   Data           4  control_step.o(.data)
    .data                                    0x1fff8014   Section       12  tim.o(.data)
    interrupt_count                          0x1fff801c   Data           4  tim.o(.data)
    .data                                    0x1fff8020   Section        4  errno.o(.data)
    _errno                                   0x1fff8020   Data           4  errno.o(.data)
    .bss                                     0x1fff8024   Section    80040  control_step.o(.bss)
    .bss                                     0x2000b8cc   Section      512  hc32_ll_interrupts.o(.bss)
    m_apfnIrqHandler                         0x2000b8cc   Data         512  hc32_ll_interrupts.o(.bss)
    .bss.noinit                              0x2000bacc   Section        8  system_hc32f460.o(.bss.noinit)
    STACK                                    0x2000bad8   Section     8192  startup_hc32f460.o(STACK)

    Global Symbols

    Symbol Name                              Value     Ov Type        Size  Object(Section)

    BuildAttributes$$THM_ISAv4$E$P$D$K$B$S$7EM$PE$A:L22UL41UL21$X:L11$S22US41US21$IEEE1$IW$USESV6$~STKCKD$USESV7$~SHL$OTIME$ROPI$IEEEX$EBA8$MICROLIB$REQ8$PRES8$EABIv2 0x00000000   Number         0  anon$$obj.o ABSOLUTE
    __ARM_use_no_argv                        0x00000000   Number         0  main.o ABSOLUTE
    __Vectors                                0x00000000   Data           4  startup_hc32f460.o(RESET)
    __cpp_initialize__aeabi_                  - Undefined Weak Reference
    __cxa_finalize                            - Undefined Weak Reference
    __decompress                              - Undefined Weak Reference
    _clock_init                               - Undefined Weak Reference
    _microlib_exit                            - Undefined Weak Reference
    __Vectors_End                            0x00000280   Data           0  startup_hc32f460.o(RESET)
    __Vectors_Size                           0x00000280   Number         0  startup_hc32f460.o ABSOLUTE
    __main                                   0x00000281   Thumb Code     0  entry.o(.ARM.Collect$$$$00000000)
    _main_stk                                0x00000281   Thumb Code     0  entry2.o(.ARM.Collect$$$$00000001)
    _main_scatterload                        0x00000285   Thumb Code     0  entry5.o(.ARM.Collect$$$$00000004)
    __main_after_scatterload                 0x00000289   Thumb Code     0  entry5.o(.ARM.Collect$$$$00000004)
    _main_clock                              0x00000289   Thumb Code     0  entry7b.o(.ARM.Collect$$$$00000008)
    _main_cpp_init                           0x00000289   Thumb Code     0  entry8b.o(.ARM.Collect$$$$0000000A)
    _main_init                               0x00000289   Thumb Code     0  entry9a.o(.ARM.Collect$$$$0000000B)
    __rt_final_cpp                           0x00000291   Thumb Code     0  entry10a.o(.ARM.Collect$$$$0000000D)
    __rt_final_exit                          0x00000291   Thumb Code     0  entry11a.o(.ARM.Collect$$$$0000000F)
    Reset_Handler                            0x00000295   Thumb Code    56  startup_hc32f460.o(.text)
    NMI_Handler                              0x000002cd   Thumb Code     2  startup_hc32f460.o(.text)
    HardFault_Handler                        0x000002cf   Thumb Code     2  startup_hc32f460.o(.text)
    MemManage_Handler                        0x000002d1   Thumb Code     2  startup_hc32f460.o(.text)
    BusFault_Handler                         0x000002d3   Thumb Code     2  startup_hc32f460.o(.text)
    UsageFault_Handler                       0x000002d5   Thumb Code     2  startup_hc32f460.o(.text)
    SVC_Handler                              0x000002d7   Thumb Code     2  startup_hc32f460.o(.text)
    DebugMon_Handler                         0x000002d9   Thumb Code     2  startup_hc32f460.o(.text)
    PendSV_Handler                           0x000002db   Thumb Code     2  startup_hc32f460.o(.text)
    SysTick_Handler                          0x000002dd   Thumb Code     2  startup_hc32f460.o(.text)
    IRQ133_Handler                           0x000002df   Thumb Code     0  startup_hc32f460.o(.text)
    IRQ134_Handler                           0x000002df   Thumb Code     0  startup_hc32f460.o(.text)
    IRQ135_Handler                           0x000002df   Thumb Code     0  startup_hc32f460.o(.text)
    __aeabi_memset                           0x000002f9   Thumb Code    14  memseta.o(.text)
    __aeabi_memset4                          0x000002f9   Thumb Code     0  memseta.o(.text)
    __aeabi_memset8                          0x000002f9   Thumb Code     0  memseta.o(.text)
    __aeabi_memclr                           0x00000307   Thumb Code     4  memseta.o(.text)
    __aeabi_memclr4                          0x00000307   Thumb Code     0  memseta.o(.text)
    __aeabi_memclr8                          0x00000307   Thumb Code     0  memseta.o(.text)
    _memset$wrapper                          0x0000030b   Thumb Code    18  memseta.o(.text)
    __aeabi_fadd                             0x0000031d   Thumb Code   164  fadd.o(.text)
    __aeabi_fsub                             0x000003c1   Thumb Code     6  fadd.o(.text)
    __aeabi_frsub                            0x000003c7   Thumb Code     6  fadd.o(.text)
    __aeabi_i2f                              0x000003cd   Thumb Code    18  fflti.o(.text)
    __aeabi_cfcmpeq                          0x000003e1   Thumb Code     0  cfcmple.o(.text)
    __aeabi_cfcmple                          0x000003e1   Thumb Code    20  cfcmple.o(.text)
    ADC1_ChCmp_IrqHandler                    0x000003f5   Thumb Code     2  hc32f460_ll_interrupts_share.o(i.ADC1_ChCmp_IrqHandler)
    __I$use$fp                               0x000003f5   Thumb Code     0  iusefp.o(.text)
    ADC1_SeqA_IrqHandler                     0x000003f7   Thumb Code     2  hc32f460_ll_interrupts_share.o(i.ADC1_SeqA_IrqHandler)
    ADC1_SeqB_IrqHandler                     0x000003f9   Thumb Code     2  hc32f460_ll_interrupts_share.o(i.ADC1_SeqB_IrqHandler)
    ADC1_SeqCmp_IrqHandler                   0x000003fb   Thumb Code     2  hc32f460_ll_interrupts_share.o(i.ADC1_SeqCmp_IrqHandler)
    ADC2_ChCmp_IrqHandler                    0x000003fd   Thumb Code     2  hc32f460_ll_interrupts_share.o(i.ADC2_ChCmp_IrqHandler)
    ADC2_SeqA_IrqHandler                     0x000003ff   Thumb Code     2  hc32f460_ll_interrupts_share.o(i.ADC2_SeqA_IrqHandler)
    u32ICGValue                              0x00000400   Data          32  hc32_ll_icg.o(.ARM.__AT_0x00000400)
    __aeabi_fmul                             0x00000421   Thumb Code   100  fmul.o(.text)
    __aeabi_fdiv                             0x00000485   Thumb Code   124  fdiv.o(.text)
    __aeabi_f2iz                             0x00000501   Thumb Code    50  ffixi.o(.text)
    __aeabi_f2uiz                            0x00000533   Thumb Code    40  ffixui.o(.text)
    _float_round                             0x0000055b   Thumb Code    18  fepilogue.o(.text)
    _float_epilogue                          0x0000056d   Thumb Code    92  fepilogue.o(.text)
    __ARM_scalbnf                            0x000005c9   Thumb Code    24  fscalb.o(.text)
    scalbnf                                  0x000005c9   Thumb Code     0  fscalb.o(.text)
    _frnd                                    0x000005e1   Thumb Code    60  frnd.o(.text)
    __scatterload                            0x0000061d   Thumb Code    28  init.o(.text)
    __scatterload_rt2                        0x0000061d   Thumb Code     0  init.o(.text)
    ADC2_SeqB_IrqHandler                     0x00000641   Thumb Code     2  hc32f460_ll_interrupts_share.o(i.ADC2_SeqB_IrqHandler)
    ADC2_SeqCmp_IrqHandler                   0x00000643   Thumb Code     2  hc32f460_ll_interrupts_share.o(i.ADC2_SeqCmp_IrqHandler)
    App_ClkCfg                               0x00000645   Thumb Code   172  tim.o(i.App_ClkCfg)
    App_IntCfg                               0x000006f9   Thumb Code   136  tim.o(i.App_IntCfg)
    App_PortCfg                              0x0000078d   Thumb Code   144  control_step.o(i.App_PortCfg)
    App_SPIxCfg                              0x0000081d   Thumb Code   134  mp6602.o(i.App_SPIxCfg)
    App_TimerACfg                            0x000008a9   Thumb Code   198  tim.o(i.App_TimerACfg)
    CAN_IrqHandler                           0x00000979   Thumb Code     2  hc32f460_ll_interrupts_share.o(i.CAN_IrqHandler)
    CLK_GetStableStatus                      0x0000097d   Thumb Code    46  hc32_ll_clk.o(i.CLK_GetStableStatus)
    CLK_PLLCmd                               0x000009cd   Thumb Code   146  hc32_ll_clk.o(i.CLK_PLLCmd)
    CLK_PLLInit                              0x00000a85   Thumb Code   596  hc32_ll_clk.o(i.CLK_PLLInit)
    CLK_PLLStructInit                        0x00000d19   Thumb Code    82  hc32_ll_clk.o(i.CLK_PLLStructInit)
    CLK_SetClockDiv                          0x00000d6b   Thumb Code    20  hc32_ll_clk.o(i.CLK_SetClockDiv)
    CLK_SetSysClockSrc                       0x00000d7f   Thumb Code    16  hc32_ll_clk.o(i.CLK_SetSysClockSrc)
    CLK_XtalCmd                              0x00000dc1   Thumb Code   144  hc32_ll_clk.o(i.CLK_XtalCmd)
    CLK_XtalInit                             0x00000e75   Thumb Code   272  hc32_ll_clk.o(i.CLK_XtalInit)
    CLK_XtalStop_IrqHandler                  0x00000fa9   Thumb Code     2  hc32f460_ll_interrupts_share.o(i.CLK_XtalStop_IrqHandler)
    CLK_XtalStructInit                       0x00000fab   Thumb Code    30  hc32_ll_clk.o(i.CLK_XtalStructInit)
    DCU1_IrqHandler                          0x0000114d   Thumb Code     2  hc32f460_ll_interrupts_share.o(i.DCU1_IrqHandler)
    DCU2_IrqHandler                          0x0000114f   Thumb Code     2  hc32f460_ll_interrupts_share.o(i.DCU2_IrqHandler)
    DCU3_IrqHandler                          0x00001151   Thumb Code     2  hc32f460_ll_interrupts_share.o(i.DCU3_IrqHandler)
    DCU4_IrqHandler                          0x00001153   Thumb Code     2  hc32f460_ll_interrupts_share.o(i.DCU4_IrqHandler)
    DDL_AssertHandler                        0x00001155   Thumb Code     4  hc32_ll_utility.o(i.DDL_AssertHandler)
    DDL_DelayUS                              0x00001159   Thumb Code    52  hc32_ll_utility.o(i.DDL_DelayUS)
    DMA1_BTC0_IrqHandler                     0x00001199   Thumb Code     2  hc32f460_ll_interrupts_share.o(i.DMA1_BTC0_IrqHandler)
    DMA1_BTC1_IrqHandler                     0x0000119b   Thumb Code     2  hc32f460_ll_interrupts_share.o(i.DMA1_BTC1_IrqHandler)
    DMA1_BTC2_IrqHandler                     0x0000119d   Thumb Code     2  hc32f460_ll_interrupts_share.o(i.DMA1_BTC2_IrqHandler)
    DMA1_BTC3_IrqHandler                     0x0000119f   Thumb Code     2  hc32f460_ll_interrupts_share.o(i.DMA1_BTC3_IrqHandler)
    DMA1_Error0_IrqHandler                   0x000011a1   Thumb Code     2  hc32f460_ll_interrupts_share.o(i.DMA1_Error0_IrqHandler)
    DMA1_Error1_IrqHandler                   0x000011a3   Thumb Code     2  hc32f460_ll_interrupts_share.o(i.DMA1_Error1_IrqHandler)
    DMA1_Error2_IrqHandler                   0x000011a5   Thumb Code     2  hc32f460_ll_interrupts_share.o(i.DMA1_Error2_IrqHandler)
    DMA1_Error3_IrqHandler                   0x000011a7   Thumb Code     2  hc32f460_ll_interrupts_share.o(i.DMA1_Error3_IrqHandler)
    DMA1_TC0_IrqHandler                      0x000011a9   Thumb Code     2  hc32f460_ll_interrupts_share.o(i.DMA1_TC0_IrqHandler)
    DMA1_TC1_IrqHandler                      0x000011ab   Thumb Code     2  hc32f460_ll_interrupts_share.o(i.DMA1_TC1_IrqHandler)
    DMA1_TC2_IrqHandler                      0x000011ad   Thumb Code     2  hc32f460_ll_interrupts_share.o(i.DMA1_TC2_IrqHandler)
    DMA1_TC3_IrqHandler                      0x000011af   Thumb Code     2  hc32f460_ll_interrupts_share.o(i.DMA1_TC3_IrqHandler)
    DMA2_BTC0_IrqHandler                     0x000011b1   Thumb Code     2  hc32f460_ll_interrupts_share.o(i.DMA2_BTC0_IrqHandler)
    DMA2_BTC1_IrqHandler                     0x000011b3   Thumb Code     2  hc32f460_ll_interrupts_share.o(i.DMA2_BTC1_IrqHandler)
    DMA2_BTC2_IrqHandler                     0x000011b5   Thumb Code     2  hc32f460_ll_interrupts_share.o(i.DMA2_BTC2_IrqHandler)
    DMA2_BTC3_IrqHandler                     0x000011b7   Thumb Code     2  hc32f460_ll_interrupts_share.o(i.DMA2_BTC3_IrqHandler)
    DMA2_Error0_IrqHandler                   0x000011b9   Thumb Code     2  hc32f460_ll_interrupts_share.o(i.DMA2_Error0_IrqHandler)
    DMA2_Error1_IrqHandler                   0x000011bb   Thumb Code     2  hc32f460_ll_interrupts_share.o(i.DMA2_Error1_IrqHandler)
    DMA2_Error2_IrqHandler                   0x000011bd   Thumb Code     2  hc32f460_ll_interrupts_share.o(i.DMA2_Error2_IrqHandler)
    DMA2_Error3_IrqHandler                   0x000011bf   Thumb Code     2  hc32f460_ll_interrupts_share.o(i.DMA2_Error3_IrqHandler)
    DMA2_TC0_IrqHandler                      0x000011c1   Thumb Code     2  hc32f460_ll_interrupts_share.o(i.DMA2_TC0_IrqHandler)
    DMA2_TC1_IrqHandler                      0x000011c3   Thumb Code     2  hc32f460_ll_interrupts_share.o(i.DMA2_TC1_IrqHandler)
    DMA2_TC2_IrqHandler                      0x000011c5   Thumb Code     2  hc32f460_ll_interrupts_share.o(i.DMA2_TC2_IrqHandler)
    DMA2_TC3_IrqHandler                      0x000011c7   Thumb Code     2  hc32f460_ll_interrupts_share.o(i.DMA2_TC3_IrqHandler)
    EFM_ColError_IrqHandler                  0x000011c9   Thumb Code     2  hc32f460_ll_interrupts_share.o(i.EFM_ColError_IrqHandler)
    EFM_OpEnd_IrqHandler                     0x000011cb   Thumb Code     2  hc32f460_ll_interrupts_share.o(i.EFM_OpEnd_IrqHandler)
    EFM_ProgramEraseError_IrqHandler         0x000011cd   Thumb Code     2  hc32f460_ll_interrupts_share.o(i.EFM_ProgramEraseError_IrqHandler)
    EFM_SetWaitCycle                         0x000011d1   Thumb Code   126  hc32_ll_efm.o(i.EFM_SetWaitCycle)
    EMB_GR0_IrqHandler                       0x00001279   Thumb Code     2  hc32f460_ll_interrupts_share.o(i.EMB_GR0_IrqHandler)
    EMB_GR1_IrqHandler                       0x0000127b   Thumb Code     2  hc32f460_ll_interrupts_share.o(i.EMB_GR1_IrqHandler)
    EMB_GR2_IrqHandler                       0x0000127d   Thumb Code     2  hc32f460_ll_interrupts_share.o(i.EMB_GR2_IrqHandler)
    EMB_GR3_IrqHandler                       0x0000127f   Thumb Code     2  hc32f460_ll_interrupts_share.o(i.EMB_GR3_IrqHandler)
    EXTINT00_IrqHandler                      0x00001281   Thumb Code     2  hc32f460_ll_interrupts_share.o(i.EXTINT00_IrqHandler)
    EXTINT01_IrqHandler                      0x00001283   Thumb Code     2  hc32f460_ll_interrupts_share.o(i.EXTINT01_IrqHandler)
    EXTINT02_IrqHandler                      0x00001285   Thumb Code     2  hc32f460_ll_interrupts_share.o(i.EXTINT02_IrqHandler)
    EXTINT03_IrqHandler                      0x00001287   Thumb Code     2  hc32f460_ll_interrupts_share.o(i.EXTINT03_IrqHandler)
    EXTINT04_IrqHandler                      0x00001289   Thumb Code     2  hc32f460_ll_interrupts_share.o(i.EXTINT04_IrqHandler)
    EXTINT05_IrqHandler                      0x0000128b   Thumb Code     2  hc32f460_ll_interrupts_share.o(i.EXTINT05_IrqHandler)
    EXTINT06_IrqHandler                      0x0000128d   Thumb Code     2  hc32f460_ll_interrupts_share.o(i.EXTINT06_IrqHandler)
    EXTINT07_IrqHandler                      0x0000128f   Thumb Code     2  hc32f460_ll_interrupts_share.o(i.EXTINT07_IrqHandler)
    EXTINT08_IrqHandler                      0x00001291   Thumb Code     2  hc32f460_ll_interrupts_share.o(i.EXTINT08_IrqHandler)
    EXTINT09_IrqHandler                      0x00001293   Thumb Code     2  hc32f460_ll_interrupts_share.o(i.EXTINT09_IrqHandler)
    EXTINT10_IrqHandler                      0x00001295   Thumb Code     2  hc32f460_ll_interrupts_share.o(i.EXTINT10_IrqHandler)
    EXTINT11_IrqHandler                      0x00001297   Thumb Code     2  hc32f460_ll_interrupts_share.o(i.EXTINT11_IrqHandler)
    EXTINT12_IrqHandler                      0x00001299   Thumb Code     2  hc32f460_ll_interrupts_share.o(i.EXTINT12_IrqHandler)
    EXTINT13_IrqHandler                      0x0000129b   Thumb Code     2  hc32f460_ll_interrupts_share.o(i.EXTINT13_IrqHandler)
    EXTINT14_IrqHandler                      0x0000129d   Thumb Code     2  hc32f460_ll_interrupts_share.o(i.EXTINT14_IrqHandler)
    EXTINT15_IrqHandler                      0x0000129f   Thumb Code     2  hc32f460_ll_interrupts_share.o(i.EXTINT15_IrqHandler)
    FCG_Fcg1PeriphClockCmd                   0x000012a1   Thumb Code    80  hc32_ll_fcg.o(i.FCG_Fcg1PeriphClockCmd)
    FCG_Fcg2PeriphClockCmd                   0x00001315   Thumb Code    80  hc32_ll_fcg.o(i.FCG_Fcg2PeriphClockCmd)
    FCM_End_IrqHandler                       0x00001389   Thumb Code     2  hc32f460_ll_interrupts_share.o(i.FCM_End_IrqHandler)
    FCM_Error_IrqHandler                     0x0000138b   Thumb Code     2  hc32f460_ll_interrupts_share.o(i.FCM_Error_IrqHandler)
    FCM_Ovf_IrqHandler                       0x0000138d   Thumb Code     2  hc32f460_ll_interrupts_share.o(i.FCM_Ovf_IrqHandler)
    GPIO_Init                                0x00001391   Thumb Code   464  hc32_ll_gpio.o(i.GPIO_Init)
    GPIO_ResetPins                           0x00001581   Thumb Code    82  hc32_ll_gpio.o(i.GPIO_ResetPins)
    GPIO_SetFunc                             0x000015f5   Thumb Code   186  hc32_ll_gpio.o(i.GPIO_SetFunc)
    GPIO_SetPins                             0x000016d1   Thumb Code    82  hc32_ll_gpio.o(i.GPIO_SetPins)
    GPIO_SetReadWaitCycle                    0x00001745   Thumb Code    90  hc32_ll_gpio.o(i.GPIO_SetReadWaitCycle)
    GPIO_StructInit                          0x000017c1   Thumb Code    32  hc32_ll_gpio.o(i.GPIO_StructInit)
    I2C1_EE_IrqHandler                       0x000017e1   Thumb Code     2  hc32f460_ll_interrupts_share.o(i.I2C1_EE_IrqHandler)
    I2C1_RxFull_IrqHandler                   0x000017e3   Thumb Code     2  hc32f460_ll_interrupts_share.o(i.I2C1_RxFull_IrqHandler)
    I2C1_TxComplete_IrqHandler               0x000017e5   Thumb Code     2  hc32f460_ll_interrupts_share.o(i.I2C1_TxComplete_IrqHandler)
    I2C1_TxEmpty_IrqHandler                  0x000017e7   Thumb Code     2  hc32f460_ll_interrupts_share.o(i.I2C1_TxEmpty_IrqHandler)
    I2C2_EE_IrqHandler                       0x000017e9   Thumb Code     2  hc32f460_ll_interrupts_share.o(i.I2C2_EE_IrqHandler)
    I2C2_RxFull_IrqHandler                   0x000017eb   Thumb Code     2  hc32f460_ll_interrupts_share.o(i.I2C2_RxFull_IrqHandler)
    I2C2_TxComplete_IrqHandler               0x000017ed   Thumb Code     2  hc32f460_ll_interrupts_share.o(i.I2C2_TxComplete_IrqHandler)
    I2C2_TxEmpty_IrqHandler                  0x000017ef   Thumb Code     2  hc32f460_ll_interrupts_share.o(i.I2C2_TxEmpty_IrqHandler)
    I2C3_EE_IrqHandler                       0x000017f1   Thumb Code     2  hc32f460_ll_interrupts_share.o(i.I2C3_EE_IrqHandler)
    I2C3_RxFull_IrqHandler                   0x000017f3   Thumb Code     2  hc32f460_ll_interrupts_share.o(i.I2C3_RxFull_IrqHandler)
    I2C3_TxComplete_IrqHandler               0x000017f5   Thumb Code     2  hc32f460_ll_interrupts_share.o(i.I2C3_TxComplete_IrqHandler)
    I2C3_TxEmpty_IrqHandler                  0x000017f7   Thumb Code     2  hc32f460_ll_interrupts_share.o(i.I2C3_TxEmpty_IrqHandler)
    I2S1_Error_IrqHandler                    0x000017f9   Thumb Code     2  hc32f460_ll_interrupts_share.o(i.I2S1_Error_IrqHandler)
    I2S1_Rx_IrqHandler                       0x000017fb   Thumb Code     2  hc32f460_ll_interrupts_share.o(i.I2S1_Rx_IrqHandler)
    I2S1_Tx_IrqHandler                       0x000017fd   Thumb Code     2  hc32f460_ll_interrupts_share.o(i.I2S1_Tx_IrqHandler)
    I2S2_Error_IrqHandler                    0x000017ff   Thumb Code     2  hc32f460_ll_interrupts_share.o(i.I2S2_Error_IrqHandler)
    I2S2_Rx_IrqHandler                       0x00001801   Thumb Code     2  hc32f460_ll_interrupts_share.o(i.I2S2_Rx_IrqHandler)
    I2S2_Tx_IrqHandler                       0x00001803   Thumb Code     2  hc32f460_ll_interrupts_share.o(i.I2S2_Tx_IrqHandler)
    I2S3_Error_IrqHandler                    0x00001805   Thumb Code     2  hc32f460_ll_interrupts_share.o(i.I2S3_Error_IrqHandler)
    I2S3_Rx_IrqHandler                       0x00001807   Thumb Code     2  hc32f460_ll_interrupts_share.o(i.I2S3_Rx_IrqHandler)
    I2S3_Tx_IrqHandler                       0x00001809   Thumb Code     2  hc32f460_ll_interrupts_share.o(i.I2S3_Tx_IrqHandler)
    I2S4_Error_IrqHandler                    0x0000180b   Thumb Code     2  hc32f460_ll_interrupts_share.o(i.I2S4_Error_IrqHandler)
    I2S4_Rx_IrqHandler                       0x0000180d   Thumb Code     2  hc32f460_ll_interrupts_share.o(i.I2S4_Rx_IrqHandler)
    I2S4_Tx_IrqHandler                       0x0000180f   Thumb Code     2  hc32f460_ll_interrupts_share.o(i.I2S4_Tx_IrqHandler)
    INTC_IrqSignIn                           0x00001811   Thumb Code   168  hc32_ll_interrupts.o(i.INTC_IrqSignIn)
    IRQ000_Handler                           0x00001945   Thumb Code    14  hc32_ll_interrupts.o(i.IRQ000_Handler)
    IRQ001_Handler                           0x00001959   Thumb Code    14  hc32_ll_interrupts.o(i.IRQ001_Handler)
    IRQ002_Handler                           0x0000196d   Thumb Code    14  hc32_ll_interrupts.o(i.IRQ002_Handler)
    IRQ003_Handler                           0x00001981   Thumb Code    14  hc32_ll_interrupts.o(i.IRQ003_Handler)
    IRQ004_Handler                           0x00001995   Thumb Code    14  hc32_ll_interrupts.o(i.IRQ004_Handler)
    IRQ005_Handler                           0x000019a9   Thumb Code    14  hc32_ll_interrupts.o(i.IRQ005_Handler)
    IRQ006_Handler                           0x000019bd   Thumb Code    14  hc32_ll_interrupts.o(i.IRQ006_Handler)
    IRQ007_Handler                           0x000019d1   Thumb Code    14  hc32_ll_interrupts.o(i.IRQ007_Handler)
    IRQ008_Handler                           0x000019e5   Thumb Code    14  hc32_ll_interrupts.o(i.IRQ008_Handler)
    IRQ009_Handler                           0x000019f9   Thumb Code    14  hc32_ll_interrupts.o(i.IRQ009_Handler)
    IRQ010_Handler                           0x00001a0d   Thumb Code    14  hc32_ll_interrupts.o(i.IRQ010_Handler)
    IRQ011_Handler                           0x00001a21   Thumb Code    14  hc32_ll_interrupts.o(i.IRQ011_Handler)
    IRQ012_Handler                           0x00001a35   Thumb Code    14  hc32_ll_interrupts.o(i.IRQ012_Handler)
    IRQ013_Handler                           0x00001a49   Thumb Code    14  hc32_ll_interrupts.o(i.IRQ013_Handler)
    IRQ014_Handler                           0x00001a5d   Thumb Code    14  hc32_ll_interrupts.o(i.IRQ014_Handler)
    IRQ015_Handler                           0x00001a71   Thumb Code    14  hc32_ll_interrupts.o(i.IRQ015_Handler)
    IRQ016_Handler                           0x00001a85   Thumb Code    14  hc32_ll_interrupts.o(i.IRQ016_Handler)
    IRQ017_Handler                           0x00001a99   Thumb Code    14  hc32_ll_interrupts.o(i.IRQ017_Handler)
    IRQ018_Handler                           0x00001aad   Thumb Code    14  hc32_ll_interrupts.o(i.IRQ018_Handler)
    IRQ019_Handler                           0x00001ac1   Thumb Code    14  hc32_ll_interrupts.o(i.IRQ019_Handler)
    IRQ020_Handler                           0x00001ad5   Thumb Code    14  hc32_ll_interrupts.o(i.IRQ020_Handler)
    IRQ021_Handler                           0x00001ae9   Thumb Code    14  hc32_ll_interrupts.o(i.IRQ021_Handler)
    IRQ022_Handler                           0x00001afd   Thumb Code    14  hc32_ll_interrupts.o(i.IRQ022_Handler)
    IRQ023_Handler                           0x00001b11   Thumb Code    14  hc32_ll_interrupts.o(i.IRQ023_Handler)
    IRQ024_Handler                           0x00001b25   Thumb Code    14  hc32_ll_interrupts.o(i.IRQ024_Handler)
    IRQ025_Handler                           0x00001b39   Thumb Code    14  hc32_ll_interrupts.o(i.IRQ025_Handler)
    IRQ026_Handler                           0x00001b4d   Thumb Code    14  hc32_ll_interrupts.o(i.IRQ026_Handler)
    IRQ027_Handler                           0x00001b61   Thumb Code    14  hc32_ll_interrupts.o(i.IRQ027_Handler)
    IRQ028_Handler                           0x00001b75   Thumb Code    14  hc32_ll_interrupts.o(i.IRQ028_Handler)
    IRQ029_Handler                           0x00001b89   Thumb Code    14  hc32_ll_interrupts.o(i.IRQ029_Handler)
    IRQ030_Handler                           0x00001b9d   Thumb Code    14  hc32_ll_interrupts.o(i.IRQ030_Handler)
    IRQ031_Handler                           0x00001bb1   Thumb Code    14  hc32_ll_interrupts.o(i.IRQ031_Handler)
    IRQ032_Handler                           0x00001bc5   Thumb Code    16  hc32_ll_interrupts.o(i.IRQ032_Handler)
    IRQ033_Handler                           0x00001bd9   Thumb Code    16  hc32_ll_interrupts.o(i.IRQ033_Handler)
    IRQ034_Handler                           0x00001bed   Thumb Code    16  hc32_ll_interrupts.o(i.IRQ034_Handler)
    IRQ035_Handler                           0x00001c01   Thumb Code    16  hc32_ll_interrupts.o(i.IRQ035_Handler)
    IRQ036_Handler                           0x00001c15   Thumb Code    16  hc32_ll_interrupts.o(i.IRQ036_Handler)
    IRQ037_Handler                           0x00001c29   Thumb Code    16  hc32_ll_interrupts.o(i.IRQ037_Handler)
    IRQ038_Handler                           0x00001c3d   Thumb Code    16  hc32_ll_interrupts.o(i.IRQ038_Handler)
    IRQ039_Handler                           0x00001c51   Thumb Code    16  hc32_ll_interrupts.o(i.IRQ039_Handler)
    IRQ040_Handler                           0x00001c65   Thumb Code    16  hc32_ll_interrupts.o(i.IRQ040_Handler)
    IRQ041_Handler                           0x00001c79   Thumb Code    16  hc32_ll_interrupts.o(i.IRQ041_Handler)
    IRQ042_Handler                           0x00001c8d   Thumb Code    16  hc32_ll_interrupts.o(i.IRQ042_Handler)
    IRQ043_Handler                           0x00001ca1   Thumb Code    16  hc32_ll_interrupts.o(i.IRQ043_Handler)
    IRQ044_Handler                           0x00001cb5   Thumb Code    16  hc32_ll_interrupts.o(i.IRQ044_Handler)
    IRQ045_Handler                           0x00001cc9   Thumb Code    16  hc32_ll_interrupts.o(i.IRQ045_Handler)
    IRQ046_Handler                           0x00001cdd   Thumb Code    16  hc32_ll_interrupts.o(i.IRQ046_Handler)
    IRQ047_Handler                           0x00001cf1   Thumb Code    16  hc32_ll_interrupts.o(i.IRQ047_Handler)
    IRQ048_Handler                           0x00001d05   Thumb Code    16  hc32_ll_interrupts.o(i.IRQ048_Handler)
    IRQ049_Handler                           0x00001d19   Thumb Code    16  hc32_ll_interrupts.o(i.IRQ049_Handler)
    IRQ050_Handler                           0x00001d2d   Thumb Code    16  hc32_ll_interrupts.o(i.IRQ050_Handler)
    IRQ051_Handler                           0x00001d41   Thumb Code    16  hc32_ll_interrupts.o(i.IRQ051_Handler)
    IRQ052_Handler                           0x00001d55   Thumb Code    16  hc32_ll_interrupts.o(i.IRQ052_Handler)
    IRQ053_Handler                           0x00001d69   Thumb Code    16  hc32_ll_interrupts.o(i.IRQ053_Handler)
    IRQ054_Handler                           0x00001d7d   Thumb Code    16  hc32_ll_interrupts.o(i.IRQ054_Handler)
    IRQ055_Handler                           0x00001d91   Thumb Code    16  hc32_ll_interrupts.o(i.IRQ055_Handler)
    IRQ056_Handler                           0x00001da5   Thumb Code    16  hc32_ll_interrupts.o(i.IRQ056_Handler)
    IRQ057_Handler                           0x00001db9   Thumb Code    16  hc32_ll_interrupts.o(i.IRQ057_Handler)
    IRQ058_Handler                           0x00001dcd   Thumb Code    16  hc32_ll_interrupts.o(i.IRQ058_Handler)
    IRQ059_Handler                           0x00001de1   Thumb Code    16  hc32_ll_interrupts.o(i.IRQ059_Handler)
    IRQ060_Handler                           0x00001df5   Thumb Code    16  hc32_ll_interrupts.o(i.IRQ060_Handler)
    IRQ061_Handler                           0x00001e09   Thumb Code    16  hc32_ll_interrupts.o(i.IRQ061_Handler)
    IRQ062_Handler                           0x00001e1d   Thumb Code    16  hc32_ll_interrupts.o(i.IRQ062_Handler)
    IRQ063_Handler                           0x00001e31   Thumb Code    16  hc32_ll_interrupts.o(i.IRQ063_Handler)
    IRQ064_Handler                           0x00001e45   Thumb Code    16  hc32_ll_interrupts.o(i.IRQ064_Handler)
    IRQ065_Handler                           0x00001e59   Thumb Code    16  hc32_ll_interrupts.o(i.IRQ065_Handler)
    IRQ066_Handler                           0x00001e6d   Thumb Code    16  hc32_ll_interrupts.o(i.IRQ066_Handler)
    IRQ067_Handler                           0x00001e81   Thumb Code    16  hc32_ll_interrupts.o(i.IRQ067_Handler)
    IRQ068_Handler                           0x00001e95   Thumb Code    16  hc32_ll_interrupts.o(i.IRQ068_Handler)
    IRQ069_Handler                           0x00001ea9   Thumb Code    16  hc32_ll_interrupts.o(i.IRQ069_Handler)
    IRQ070_Handler                           0x00001ebd   Thumb Code    16  hc32_ll_interrupts.o(i.IRQ070_Handler)
    IRQ071_Handler                           0x00001ed1   Thumb Code    16  hc32_ll_interrupts.o(i.IRQ071_Handler)
    IRQ072_Handler                           0x00001ee5   Thumb Code    16  hc32_ll_interrupts.o(i.IRQ072_Handler)
    IRQ073_Handler                           0x00001ef9   Thumb Code    16  hc32_ll_interrupts.o(i.IRQ073_Handler)
    IRQ074_Handler                           0x00001f0d   Thumb Code    16  hc32_ll_interrupts.o(i.IRQ074_Handler)
    IRQ075_Handler                           0x00001f21   Thumb Code    16  hc32_ll_interrupts.o(i.IRQ075_Handler)
    IRQ076_Handler                           0x00001f35   Thumb Code    16  hc32_ll_interrupts.o(i.IRQ076_Handler)
    IRQ077_Handler                           0x00001f49   Thumb Code    16  hc32_ll_interrupts.o(i.IRQ077_Handler)
    IRQ078_Handler                           0x00001f5d   Thumb Code    16  hc32_ll_interrupts.o(i.IRQ078_Handler)
    IRQ079_Handler                           0x00001f71   Thumb Code    16  hc32_ll_interrupts.o(i.IRQ079_Handler)
    IRQ080_Handler                           0x00001f85   Thumb Code    16  hc32_ll_interrupts.o(i.IRQ080_Handler)
    IRQ081_Handler                           0x00001f99   Thumb Code    16  hc32_ll_interrupts.o(i.IRQ081_Handler)
    IRQ082_Handler                           0x00001fad   Thumb Code    16  hc32_ll_interrupts.o(i.IRQ082_Handler)
    IRQ083_Handler                           0x00001fc1   Thumb Code    16  hc32_ll_interrupts.o(i.IRQ083_Handler)
    IRQ084_Handler                           0x00001fd5   Thumb Code    16  hc32_ll_interrupts.o(i.IRQ084_Handler)
    IRQ085_Handler                           0x00001fe9   Thumb Code    16  hc32_ll_interrupts.o(i.IRQ085_Handler)
    IRQ086_Handler                           0x00001ffd   Thumb Code    16  hc32_ll_interrupts.o(i.IRQ086_Handler)
    IRQ087_Handler                           0x00002011   Thumb Code    16  hc32_ll_interrupts.o(i.IRQ087_Handler)
    IRQ088_Handler                           0x00002025   Thumb Code    16  hc32_ll_interrupts.o(i.IRQ088_Handler)
    IRQ089_Handler                           0x00002039   Thumb Code    16  hc32_ll_interrupts.o(i.IRQ089_Handler)
    IRQ090_Handler                           0x0000204d   Thumb Code    16  hc32_ll_interrupts.o(i.IRQ090_Handler)
    IRQ091_Handler                           0x00002061   Thumb Code    16  hc32_ll_interrupts.o(i.IRQ091_Handler)
    IRQ092_Handler                           0x00002075   Thumb Code    16  hc32_ll_interrupts.o(i.IRQ092_Handler)
    IRQ093_Handler                           0x00002089   Thumb Code    16  hc32_ll_interrupts.o(i.IRQ093_Handler)
    IRQ094_Handler                           0x0000209d   Thumb Code    16  hc32_ll_interrupts.o(i.IRQ094_Handler)
    IRQ095_Handler                           0x000020b1   Thumb Code    16  hc32_ll_interrupts.o(i.IRQ095_Handler)
    IRQ096_Handler                           0x000020c5   Thumb Code    16  hc32_ll_interrupts.o(i.IRQ096_Handler)
    IRQ097_Handler                           0x000020d9   Thumb Code    16  hc32_ll_interrupts.o(i.IRQ097_Handler)
    IRQ098_Handler                           0x000020ed   Thumb Code    16  hc32_ll_interrupts.o(i.IRQ098_Handler)
    IRQ099_Handler                           0x00002101   Thumb Code    16  hc32_ll_interrupts.o(i.IRQ099_Handler)
    IRQ100_Handler                           0x00002115   Thumb Code    16  hc32_ll_interrupts.o(i.IRQ100_Handler)
    IRQ101_Handler                           0x00002129   Thumb Code    16  hc32_ll_interrupts.o(i.IRQ101_Handler)
    IRQ102_Handler                           0x0000213d   Thumb Code    16  hc32_ll_interrupts.o(i.IRQ102_Handler)
    IRQ103_Handler                           0x00002151   Thumb Code    16  hc32_ll_interrupts.o(i.IRQ103_Handler)
    IRQ104_Handler                           0x00002165   Thumb Code    16  hc32_ll_interrupts.o(i.IRQ104_Handler)
    IRQ105_Handler                           0x00002179   Thumb Code    16  hc32_ll_interrupts.o(i.IRQ105_Handler)
    IRQ106_Handler                           0x0000218d   Thumb Code    16  hc32_ll_interrupts.o(i.IRQ106_Handler)
    IRQ107_Handler                           0x000021a1   Thumb Code    16  hc32_ll_interrupts.o(i.IRQ107_Handler)
    IRQ108_Handler                           0x000021b5   Thumb Code    16  hc32_ll_interrupts.o(i.IRQ108_Handler)
    IRQ109_Handler                           0x000021c9   Thumb Code    16  hc32_ll_interrupts.o(i.IRQ109_Handler)
    IRQ110_Handler                           0x000021dd   Thumb Code    16  hc32_ll_interrupts.o(i.IRQ110_Handler)
    IRQ111_Handler                           0x000021f1   Thumb Code    16  hc32_ll_interrupts.o(i.IRQ111_Handler)
    IRQ112_Handler                           0x00002205   Thumb Code    16  hc32_ll_interrupts.o(i.IRQ112_Handler)
    IRQ113_Handler                           0x00002219   Thumb Code    16  hc32_ll_interrupts.o(i.IRQ113_Handler)
    IRQ114_Handler                           0x0000222d   Thumb Code    16  hc32_ll_interrupts.o(i.IRQ114_Handler)
    IRQ115_Handler                           0x00002241   Thumb Code    16  hc32_ll_interrupts.o(i.IRQ115_Handler)
    IRQ116_Handler                           0x00002255   Thumb Code    16  hc32_ll_interrupts.o(i.IRQ116_Handler)
    IRQ117_Handler                           0x00002269   Thumb Code    16  hc32_ll_interrupts.o(i.IRQ117_Handler)
    IRQ118_Handler                           0x0000227d   Thumb Code    16  hc32_ll_interrupts.o(i.IRQ118_Handler)
    IRQ119_Handler                           0x00002291   Thumb Code    16  hc32_ll_interrupts.o(i.IRQ119_Handler)
    IRQ120_Handler                           0x000022a5   Thumb Code    16  hc32_ll_interrupts.o(i.IRQ120_Handler)
    IRQ121_Handler                           0x000022b9   Thumb Code    16  hc32_ll_interrupts.o(i.IRQ121_Handler)
    IRQ122_Handler                           0x000022cd   Thumb Code    16  hc32_ll_interrupts.o(i.IRQ122_Handler)
    IRQ123_Handler                           0x000022e1   Thumb Code    16  hc32_ll_interrupts.o(i.IRQ123_Handler)
    IRQ124_Handler                           0x000022f5   Thumb Code    16  hc32_ll_interrupts.o(i.IRQ124_Handler)
    IRQ125_Handler                           0x00002309   Thumb Code    16  hc32_ll_interrupts.o(i.IRQ125_Handler)
    IRQ126_Handler                           0x0000231d   Thumb Code    16  hc32_ll_interrupts.o(i.IRQ126_Handler)
    IRQ127_Handler                           0x00002331   Thumb Code    16  hc32_ll_interrupts.o(i.IRQ127_Handler)
    IRQ128_Handler                           0x00002345   Thumb Code   330  hc32f460_ll_interrupts_share.o(i.IRQ128_Handler)
    IRQ129_Handler                           0x00002499   Thumb Code  1168  hc32f460_ll_interrupts_share.o(i.IRQ129_Handler)
    IRQ130_Handler                           0x00002931   Thumb Code   204  hc32f460_ll_interrupts_share.o(i.IRQ130_Handler)
    IRQ131_Handler                           0x00002a19   Thumb Code   684  hc32f460_ll_interrupts_share.o(i.IRQ131_Handler)
    IRQ132_Handler                           0x00002ce1   Thumb Code   366  hc32f460_ll_interrupts_share.o(i.IRQ132_Handler)
    IRQ136_Handler                           0x00002e61   Thumb Code   762  hc32f460_ll_interrupts_share.o(i.IRQ136_Handler)
    IRQ137_Handler                           0x000031a5   Thumb Code   620  hc32f460_ll_interrupts_share.o(i.IRQ137_Handler)
    IRQ138_Handler                           0x0000342d   Thumb Code   548  hc32f460_ll_interrupts_share.o(i.IRQ138_Handler)
    IRQ139_Handler                           0x0000365d   Thumb Code   282  hc32f460_ll_interrupts_share.o(i.IRQ139_Handler)
    IRQ140_Handler                           0x00003781   Thumb Code   490  hc32f460_ll_interrupts_share.o(i.IRQ140_Handler)
    IRQ141_Handler                           0x00003995   Thumb Code   554  hc32f460_ll_interrupts_share.o(i.IRQ141_Handler)
    IRQ142_Handler                           0x00003bfd   Thumb Code   240  hc32f460_ll_interrupts_share.o(i.IRQ142_Handler)
    IRQ143_Handler                           0x00003d09   Thumb Code   252  hc32f460_ll_interrupts_share.o(i.IRQ143_Handler)
    LL_PERIPH_WE                             0x00003e15   Thumb Code   122  hc32_ll.o(i.LL_PERIPH_WE)
    LL_PERIPH_WP                             0x00003ea5   Thumb Code   114  hc32_ll.o(i.LL_PERIPH_WP)
    PWC_HighSpeedToHighPerformance           0x00003f2d   Thumb Code    68  hc32_ll_pwc.o(i.PWC_HighSpeedToHighPerformance)
    PWC_LVD1_IrqHandler                      0x00003f91   Thumb Code     2  hc32f460_ll_interrupts_share.o(i.PWC_LVD1_IrqHandler)
    PWC_LVD2_IrqHandler                      0x00003f93   Thumb Code     2  hc32f460_ll_interrupts_share.o(i.PWC_LVD2_IrqHandler)
    PWC_WakeupTimer_IrqHandler               0x00003fc9   Thumb Code     2  hc32f460_ll_interrupts_share.o(i.PWC_WakeupTimer_IrqHandler)
    QSPI_Error_IrqHandler                    0x00003fcb   Thumb Code     2  hc32f460_ll_interrupts_share.o(i.QSPI_Error_IrqHandler)
    SDIOC1_IrqHandler                        0x00003fcd   Thumb Code     2  hc32f460_ll_interrupts_share.o(i.SDIOC1_IrqHandler)
    SDIOC2_IrqHandler                        0x00003fcf   Thumb Code     2  hc32f460_ll_interrupts_share.o(i.SDIOC2_IrqHandler)
    SPI1_Error_IrqHandler                    0x00003fd1   Thumb Code     2  hc32f460_ll_interrupts_share.o(i.SPI1_Error_IrqHandler)
    SPI1_Idle_IrqHandler                     0x00003fd3   Thumb Code     2  hc32f460_ll_interrupts_share.o(i.SPI1_Idle_IrqHandler)
    SPI1_RxFull_IrqHandler                   0x00003fd5   Thumb Code     2  hc32f460_ll_interrupts_share.o(i.SPI1_RxFull_IrqHandler)
    SPI1_TxEmpty_IrqHandler                  0x00003fd7   Thumb Code     2  hc32f460_ll_interrupts_share.o(i.SPI1_TxEmpty_IrqHandler)
    SPI2_Error_IrqHandler                    0x00003fd9   Thumb Code     2  hc32f460_ll_interrupts_share.o(i.SPI2_Error_IrqHandler)
    SPI2_Idle_IrqHandler                     0x00003fdb   Thumb Code     2  hc32f460_ll_interrupts_share.o(i.SPI2_Idle_IrqHandler)
    SPI2_RxFull_IrqHandler                   0x00003fdd   Thumb Code     2  hc32f460_ll_interrupts_share.o(i.SPI2_RxFull_IrqHandler)
    SPI2_TxEmpty_IrqHandler                  0x00003fdf   Thumb Code     2  hc32f460_ll_interrupts_share.o(i.SPI2_TxEmpty_IrqHandler)
    SPI3_Error_IrqHandler                    0x00003fe1   Thumb Code     2  hc32f460_ll_interrupts_share.o(i.SPI3_Error_IrqHandler)
    SPI3_Idle_IrqHandler                     0x00003fe3   Thumb Code     2  hc32f460_ll_interrupts_share.o(i.SPI3_Idle_IrqHandler)
    SPI3_RxFull_IrqHandler                   0x00003fe5   Thumb Code     2  hc32f460_ll_interrupts_share.o(i.SPI3_RxFull_IrqHandler)
    SPI3_TxEmpty_IrqHandler                  0x00003fe7   Thumb Code     2  hc32f460_ll_interrupts_share.o(i.SPI3_TxEmpty_IrqHandler)
    SPI4_Error_IrqHandler                    0x00003fe9   Thumb Code     2  hc32f460_ll_interrupts_share.o(i.SPI4_Error_IrqHandler)
    SPI4_Idle_IrqHandler                     0x00003feb   Thumb Code     2  hc32f460_ll_interrupts_share.o(i.SPI4_Idle_IrqHandler)
    SPI4_RxFull_IrqHandler                   0x00003fed   Thumb Code     2  hc32f460_ll_interrupts_share.o(i.SPI4_RxFull_IrqHandler)
    SPI4_TxEmpty_IrqHandler                  0x00003fef   Thumb Code     2  hc32f460_ll_interrupts_share.o(i.SPI4_TxEmpty_IrqHandler)
    SPI_Cmd                                  0x00003ff1   Thumb Code   118  hc32_ll_spi.o(i.SPI_Cmd)
    SPI_DelayStructInit                      0x00004095   Thumb Code    20  hc32_ll_spi.o(i.SPI_DelayStructInit)
    SPI_DelayTimeConfig                      0x000040a9   Thumb Code   428  hc32_ll_spi.o(i.SPI_DelayTimeConfig)
    SPI_Init                                 0x00004281   Thumb Code   642  hc32_ll_spi.o(i.SPI_Init)
    SPI_ParityCheckCmd                       0x00004531   Thumb Code    92  hc32_ll_spi.o(i.SPI_ParityCheckCmd)
    SPI_SSPinSelect                          0x000045b9   Thumb Code   150  hc32_ll_spi.o(i.SPI_SSPinSelect)
    SPI_SetLoopbackMode                      0x0000467d   Thumb Code    88  hc32_ll_spi.o(i.SPI_SetLoopbackMode)
    SPI_SetSSValidLevel                      0x00004701   Thumb Code   130  hc32_ll_spi.o(i.SPI_SetSSValidLevel)
    SPI_StructInit                           0x000047b1   Thumb Code    46  hc32_ll_spi.o(i.SPI_StructInit)
    SRAM_SetWaitCycle                        0x000047e1   Thumb Code   182  hc32_ll_sram.o(i.SRAM_SetWaitCycle)
    SWDT_IrqHandler                          0x000048b9   Thumb Code     2  hc32f460_ll_interrupts_share.o(i.SWDT_IrqHandler)
    Speed_Decision_S                         0x00004ccd   Thumb Code   296  control_step.o(i.Speed_Decision_S)
    Stepper_Move_S                           0x00004e11   Thumb Code   220  control_step.o(i.Stepper_Move_S)
    Stepper_start                            0x00004f09   Thumb Code    12  control_step.o(i.Stepper_start)
    SystemCoreClockUpdate                    0x00004f15   Thumb Code   174  system_hc32f460.o(i.SystemCoreClockUpdate)
    SystemInit                               0x00004fe1   Thumb Code    14  system_hc32f460.o(i.SystemInit)
    TMR0_1_CmpA_IrqHandler                   0x00004ff5   Thumb Code     2  hc32f460_ll_interrupts_share.o(i.TMR0_1_CmpA_IrqHandler)
    TMR0_1_CmpB_IrqHandler                   0x00004ff7   Thumb Code     2  hc32f460_ll_interrupts_share.o(i.TMR0_1_CmpB_IrqHandler)
    TMR0_2_CmpA_IrqHandler                   0x00004ff9   Thumb Code     2  hc32f460_ll_interrupts_share.o(i.TMR0_2_CmpA_IrqHandler)
    TMR0_2_CmpB_IrqHandler                   0x00004ffb   Thumb Code     2  hc32f460_ll_interrupts_share.o(i.TMR0_2_CmpB_IrqHandler)
    TMR4_1_GCmpUH_IrqHandler                 0x00004ffd   Thumb Code     2  hc32f460_ll_interrupts_share.o(i.TMR4_1_GCmpUH_IrqHandler)
    TMR4_1_GCmpUL_IrqHandler                 0x00004fff   Thumb Code     2  hc32f460_ll_interrupts_share.o(i.TMR4_1_GCmpUL_IrqHandler)
    TMR4_1_GCmpVH_IrqHandler                 0x00005001   Thumb Code     2  hc32f460_ll_interrupts_share.o(i.TMR4_1_GCmpVH_IrqHandler)
    TMR4_1_GCmpVL_IrqHandler                 0x00005003   Thumb Code     2  hc32f460_ll_interrupts_share.o(i.TMR4_1_GCmpVL_IrqHandler)
    TMR4_1_GCmpWH_IrqHandler                 0x00005005   Thumb Code     2  hc32f460_ll_interrupts_share.o(i.TMR4_1_GCmpWH_IrqHandler)
    TMR4_1_GCmpWL_IrqHandler                 0x00005007   Thumb Code     2  hc32f460_ll_interrupts_share.o(i.TMR4_1_GCmpWL_IrqHandler)
    TMR4_1_GOvf_IrqHandler                   0x00005009   Thumb Code     2  hc32f460_ll_interrupts_share.o(i.TMR4_1_GOvf_IrqHandler)
    TMR4_1_GUdf_IrqHandler                   0x0000500b   Thumb Code     2  hc32f460_ll_interrupts_share.o(i.TMR4_1_GUdf_IrqHandler)
    TMR4_1_ReloadU_IrqHandler                0x0000500d   Thumb Code     2  hc32f460_ll_interrupts_share.o(i.TMR4_1_ReloadU_IrqHandler)
    TMR4_1_ReloadV_IrqHandler                0x0000500f   Thumb Code     2  hc32f460_ll_interrupts_share.o(i.TMR4_1_ReloadV_IrqHandler)
    TMR4_1_ReloadW_IrqHandler                0x00005011   Thumb Code     2  hc32f460_ll_interrupts_share.o(i.TMR4_1_ReloadW_IrqHandler)
    TMR4_2_GCmpUH_IrqHandler                 0x00005013   Thumb Code     2  hc32f460_ll_interrupts_share.o(i.TMR4_2_GCmpUH_IrqHandler)
    TMR4_2_GCmpUL_IrqHandler                 0x00005015   Thumb Code     2  hc32f460_ll_interrupts_share.o(i.TMR4_2_GCmpUL_IrqHandler)
    TMR4_2_GCmpVH_IrqHandler                 0x00005017   Thumb Code     2  hc32f460_ll_interrupts_share.o(i.TMR4_2_GCmpVH_IrqHandler)
    TMR4_2_GCmpVL_IrqHandler                 0x00005019   Thumb Code     2  hc32f460_ll_interrupts_share.o(i.TMR4_2_GCmpVL_IrqHandler)
    TMR4_2_GCmpWH_IrqHandler                 0x0000501b   Thumb Code     2  hc32f460_ll_interrupts_share.o(i.TMR4_2_GCmpWH_IrqHandler)
    TMR4_2_GCmpWL_IrqHandler                 0x0000501d   Thumb Code     2  hc32f460_ll_interrupts_share.o(i.TMR4_2_GCmpWL_IrqHandler)
    TMR4_2_GOvf_IrqHandler                   0x0000501f   Thumb Code     2  hc32f460_ll_interrupts_share.o(i.TMR4_2_GOvf_IrqHandler)
    TMR4_2_GUdf_IrqHandler                   0x00005021   Thumb Code     2  hc32f460_ll_interrupts_share.o(i.TMR4_2_GUdf_IrqHandler)
    TMR4_2_ReloadU_IrqHandler                0x00005023   Thumb Code     2  hc32f460_ll_interrupts_share.o(i.TMR4_2_ReloadU_IrqHandler)
    TMR4_2_ReloadV_IrqHandler                0x00005025   Thumb Code     2  hc32f460_ll_interrupts_share.o(i.TMR4_2_ReloadV_IrqHandler)
    TMR4_2_ReloadW_IrqHandler                0x00005027   Thumb Code     2  hc32f460_ll_interrupts_share.o(i.TMR4_2_ReloadW_IrqHandler)
    TMR4_3_GCmpUH_IrqHandler                 0x00005029   Thumb Code     2  hc32f460_ll_interrupts_share.o(i.TMR4_3_GCmpUH_IrqHandler)
    TMR4_3_GCmpUL_IrqHandler                 0x0000502b   Thumb Code     2  hc32f460_ll_interrupts_share.o(i.TMR4_3_GCmpUL_IrqHandler)
    TMR4_3_GCmpVH_IrqHandler                 0x0000502d   Thumb Code     2  hc32f460_ll_interrupts_share.o(i.TMR4_3_GCmpVH_IrqHandler)
    TMR4_3_GCmpVL_IrqHandler                 0x0000502f   Thumb Code     2  hc32f460_ll_interrupts_share.o(i.TMR4_3_GCmpVL_IrqHandler)
    TMR4_3_GCmpWH_IrqHandler                 0x00005031   Thumb Code     2  hc32f460_ll_interrupts_share.o(i.TMR4_3_GCmpWH_IrqHandler)
    TMR4_3_GCmpWL_IrqHandler                 0x00005033   Thumb Code     2  hc32f460_ll_interrupts_share.o(i.TMR4_3_GCmpWL_IrqHandler)
    TMR4_3_GOvf_IrqHandler                   0x00005035   Thumb Code     2  hc32f460_ll_interrupts_share.o(i.TMR4_3_GOvf_IrqHandler)
    TMR4_3_GUdf_IrqHandler                   0x00005037   Thumb Code     2  hc32f460_ll_interrupts_share.o(i.TMR4_3_GUdf_IrqHandler)
    TMR4_3_ReloadU_IrqHandler                0x00005039   Thumb Code     2  hc32f460_ll_interrupts_share.o(i.TMR4_3_ReloadU_IrqHandler)
    TMR4_3_ReloadV_IrqHandler                0x0000503b   Thumb Code     2  hc32f460_ll_interrupts_share.o(i.TMR4_3_ReloadV_IrqHandler)
    TMR4_3_ReloadW_IrqHandler                0x0000503d   Thumb Code     2  hc32f460_ll_interrupts_share.o(i.TMR4_3_ReloadW_IrqHandler)
    TMR6_1_GCmpA_IrqHandler                  0x0000503f   Thumb Code     2  hc32f460_ll_interrupts_share.o(i.TMR6_1_GCmpA_IrqHandler)
    TMR6_1_GCmpB_IrqHandler                  0x00005041   Thumb Code     2  hc32f460_ll_interrupts_share.o(i.TMR6_1_GCmpB_IrqHandler)
    TMR6_1_GCmpC_IrqHandler                  0x00005043   Thumb Code     2  hc32f460_ll_interrupts_share.o(i.TMR6_1_GCmpC_IrqHandler)
    TMR6_1_GCmpD_IrqHandler                  0x00005045   Thumb Code     2  hc32f460_ll_interrupts_share.o(i.TMR6_1_GCmpD_IrqHandler)
    TMR6_1_GCmpE_IrqHandler                  0x00005047   Thumb Code     2  hc32f460_ll_interrupts_share.o(i.TMR6_1_GCmpE_IrqHandler)
    TMR6_1_GCmpF_IrqHandler                  0x00005049   Thumb Code     2  hc32f460_ll_interrupts_share.o(i.TMR6_1_GCmpF_IrqHandler)
    TMR6_1_GDte_IrqHandler                   0x0000504b   Thumb Code     2  hc32f460_ll_interrupts_share.o(i.TMR6_1_GDte_IrqHandler)
    TMR6_1_GOvf_IrqHandler                   0x0000504d   Thumb Code     2  hc32f460_ll_interrupts_share.o(i.TMR6_1_GOvf_IrqHandler)
    TMR6_1_GUdf_IrqHandler                   0x0000504f   Thumb Code     2  hc32f460_ll_interrupts_share.o(i.TMR6_1_GUdf_IrqHandler)
    TMR6_1_SCmpA_IrqHandler                  0x00005051   Thumb Code     2  hc32f460_ll_interrupts_share.o(i.TMR6_1_SCmpA_IrqHandler)
    TMR6_1_SCmpB_IrqHandler                  0x00005053   Thumb Code     2  hc32f460_ll_interrupts_share.o(i.TMR6_1_SCmpB_IrqHandler)
    TMR6_2_GCmpA_IrqHandler                  0x00005055   Thumb Code     2  hc32f460_ll_interrupts_share.o(i.TMR6_2_GCmpA_IrqHandler)
    TMR6_2_GCmpB_IrqHandler                  0x00005057   Thumb Code     2  hc32f460_ll_interrupts_share.o(i.TMR6_2_GCmpB_IrqHandler)
    TMR6_2_GCmpC_IrqHandler                  0x00005059   Thumb Code     2  hc32f460_ll_interrupts_share.o(i.TMR6_2_GCmpC_IrqHandler)
    TMR6_2_GCmpD_IrqHandler                  0x0000505b   Thumb Code     2  hc32f460_ll_interrupts_share.o(i.TMR6_2_GCmpD_IrqHandler)
    TMR6_2_GCmpE_IrqHandler                  0x0000505d   Thumb Code     2  hc32f460_ll_interrupts_share.o(i.TMR6_2_GCmpE_IrqHandler)
    TMR6_2_GCmpF_IrqHandler                  0x0000505f   Thumb Code     2  hc32f460_ll_interrupts_share.o(i.TMR6_2_GCmpF_IrqHandler)
    TMR6_2_GDte_IrqHandler                   0x00005061   Thumb Code     2  hc32f460_ll_interrupts_share.o(i.TMR6_2_GDte_IrqHandler)
    TMR6_2_GOvf_IrqHandler                   0x00005063   Thumb Code     2  hc32f460_ll_interrupts_share.o(i.TMR6_2_GOvf_IrqHandler)
    TMR6_2_GUdf_IrqHandler                   0x00005065   Thumb Code     2  hc32f460_ll_interrupts_share.o(i.TMR6_2_GUdf_IrqHandler)
    TMR6_2_SCmpA_IrqHandler                  0x00005067   Thumb Code     2  hc32f460_ll_interrupts_share.o(i.TMR6_2_SCmpA_IrqHandler)
    TMR6_2_SCmpB_IrqHandler                  0x00005069   Thumb Code     2  hc32f460_ll_interrupts_share.o(i.TMR6_2_SCmpB_IrqHandler)
    TMR6_3_GCmpA_IrqHandler                  0x0000506b   Thumb Code     2  hc32f460_ll_interrupts_share.o(i.TMR6_3_GCmpA_IrqHandler)
    TMR6_3_GCmpB_IrqHandler                  0x0000506d   Thumb Code     2  hc32f460_ll_interrupts_share.o(i.TMR6_3_GCmpB_IrqHandler)
    TMR6_3_GCmpC_IrqHandler                  0x0000506f   Thumb Code     2  hc32f460_ll_interrupts_share.o(i.TMR6_3_GCmpC_IrqHandler)
    TMR6_3_GCmpD_IrqHandler                  0x00005071   Thumb Code     2  hc32f460_ll_interrupts_share.o(i.TMR6_3_GCmpD_IrqHandler)
    TMR6_3_GCmpE_IrqHandler                  0x00005073   Thumb Code     2  hc32f460_ll_interrupts_share.o(i.TMR6_3_GCmpE_IrqHandler)
    TMR6_3_GCmpF_IrqHandler                  0x00005075   Thumb Code     2  hc32f460_ll_interrupts_share.o(i.TMR6_3_GCmpF_IrqHandler)
    TMR6_3_GDte_IrqHandler                   0x00005077   Thumb Code     2  hc32f460_ll_interrupts_share.o(i.TMR6_3_GDte_IrqHandler)
    TMR6_3_GOvf_IrqHandler                   0x00005079   Thumb Code     2  hc32f460_ll_interrupts_share.o(i.TMR6_3_GOvf_IrqHandler)
    TMR6_3_GUdf_IrqHandler                   0x0000507b   Thumb Code     2  hc32f460_ll_interrupts_share.o(i.TMR6_3_GUdf_IrqHandler)
    TMR6_3_SCmpA_IrqHandler                  0x0000507d   Thumb Code     2  hc32f460_ll_interrupts_share.o(i.TMR6_3_SCmpA_IrqHandler)
    TMR6_3_SCmpB_IrqHandler                  0x0000507f   Thumb Code     2  hc32f460_ll_interrupts_share.o(i.TMR6_3_SCmpB_IrqHandler)
    TMRA_1_Cmp_IrqHandler                    0x00005081   Thumb Code     2  hc32f460_ll_interrupts_share.o(i.TMRA_1_Cmp_IrqHandler)
    TMRA_1_Ovf_IrqHandler                    0x00005083   Thumb Code     2  hc32f460_ll_interrupts_share.o(i.TMRA_1_Ovf_IrqHandler)
    TMRA_1_Udf_IrqHandler                    0x00005085   Thumb Code     2  hc32f460_ll_interrupts_share.o(i.TMRA_1_Udf_IrqHandler)
    TMRA_2_Cmp_IrqHandler                    0x00005087   Thumb Code     2  hc32f460_ll_interrupts_share.o(i.TMRA_2_Cmp_IrqHandler)
    TMRA_2_Ovf_IrqHandler                    0x00005089   Thumb Code     2  hc32f460_ll_interrupts_share.o(i.TMRA_2_Ovf_IrqHandler)
    TMRA_2_Udf_IrqHandler                    0x0000508b   Thumb Code     2  hc32f460_ll_interrupts_share.o(i.TMRA_2_Udf_IrqHandler)
    TMRA_3_Cmp_IrqHandler                    0x0000508d   Thumb Code     2  hc32f460_ll_interrupts_share.o(i.TMRA_3_Cmp_IrqHandler)
    TMRA_3_Ovf_IrqHandler                    0x0000508f   Thumb Code     2  hc32f460_ll_interrupts_share.o(i.TMRA_3_Ovf_IrqHandler)
    TMRA_3_Udf_IrqHandler                    0x00005091   Thumb Code     2  hc32f460_ll_interrupts_share.o(i.TMRA_3_Udf_IrqHandler)
    TMRA_4_Cmp_IrqHandler                    0x00005093   Thumb Code     2  hc32f460_ll_interrupts_share.o(i.TMRA_4_Cmp_IrqHandler)
    TMRA_4_Ovf_IrqHandler                    0x00005095   Thumb Code     2  hc32f460_ll_interrupts_share.o(i.TMRA_4_Ovf_IrqHandler)
    TMRA_4_Udf_IrqHandler                    0x00005097   Thumb Code     2  hc32f460_ll_interrupts_share.o(i.TMRA_4_Udf_IrqHandler)
    TMRA_5_Cmp_IrqHandler                    0x00005099   Thumb Code     2  hc32f460_ll_interrupts_share.o(i.TMRA_5_Cmp_IrqHandler)
    TMRA_5_Ovf_IrqHandler                    0x0000509b   Thumb Code     2  hc32f460_ll_interrupts_share.o(i.TMRA_5_Ovf_IrqHandler)
    TMRA_5_Udf_IrqHandler                    0x0000509d   Thumb Code     2  hc32f460_ll_interrupts_share.o(i.TMRA_5_Udf_IrqHandler)
    TMRA_6_Cmp_IrqHandler                    0x0000509f   Thumb Code     2  hc32f460_ll_interrupts_share.o(i.TMRA_6_Cmp_IrqHandler)
    TMRA_6_Ovf_IrqHandler                    0x000050a1   Thumb Code     2  hc32f460_ll_interrupts_share.o(i.TMRA_6_Ovf_IrqHandler)
    TMRA_6_Udf_IrqHandler                    0x000050a3   Thumb Code     2  hc32f460_ll_interrupts_share.o(i.TMRA_6_Udf_IrqHandler)
    TMRA_ClearStatus                         0x000050a5   Thumb Code   100  hc32_ll_tmra.o(i.TMRA_ClearStatus)
    TMRA_GetCountValue                       0x00005141   Thumb Code    60  hc32_ll_tmra.o(i.TMRA_GetCountValue)
    TMRA_Init                                0x000051b1   Thumb Code   346  hc32_ll_tmra.o(i.TMRA_Init)
    TMRA_IntCmd                              0x00005341   Thumb Code   180  hc32_ll_tmra.o(i.TMRA_IntCmd)
    TMRA_PWM_Init                            0x0000542d   Thumb Code   278  hc32_ll_tmra.o(i.TMRA_PWM_Init)
    TMRA_PWM_OutputCmd                       0x00005579   Thumb Code   112  hc32_ll_tmra.o(i.TMRA_PWM_OutputCmd)
    TMRA_PWM_StructInit                      0x0000561d   Thumb Code    30  hc32_ll_tmra.o(i.TMRA_PWM_StructInit)
    TMRA_SetCompareValue                     0x0000563d   Thumb Code    80  hc32_ll_tmra.o(i.TMRA_SetCompareValue)
    TMRA_SetCountValue                       0x000056c1   Thumb Code    62  hc32_ll_tmra.o(i.TMRA_SetCountValue)
    TMRA_SetFunc                             0x00005735   Thumb Code   116  hc32_ll_tmra.o(i.TMRA_SetFunc)
    TMRA_SetPeriodValue                      0x000057dd   Thumb Code    62  hc32_ll_tmra.o(i.TMRA_SetPeriodValue)
    TMRA_Start                               0x00005851   Thumb Code    70  hc32_ll_tmra.o(i.TMRA_Start)
    TMRA_StructInit                          0x000058cd   Thumb Code    36  hc32_ll_tmra.o(i.TMRA_StructInit)
    USART1_RxError_IrqHandler                0x000058f1   Thumb Code     2  hc32f460_ll_interrupts_share.o(i.USART1_RxError_IrqHandler)
    USART1_RxFull_IrqHandler                 0x000058f3   Thumb Code     2  hc32f460_ll_interrupts_share.o(i.USART1_RxFull_IrqHandler)
    USART1_RxTO_IrqHandler                   0x000058f5   Thumb Code     2  hc32f460_ll_interrupts_share.o(i.USART1_RxTO_IrqHandler)
    USART1_TxComplete_IrqHandler             0x000058f7   Thumb Code     2  hc32f460_ll_interrupts_share.o(i.USART1_TxComplete_IrqHandler)
    USART1_TxEmpty_IrqHandler                0x000058f9   Thumb Code     2  hc32f460_ll_interrupts_share.o(i.USART1_TxEmpty_IrqHandler)
    USART2_RxError_IrqHandler                0x000058fb   Thumb Code     2  hc32f460_ll_interrupts_share.o(i.USART2_RxError_IrqHandler)
    USART2_RxFull_IrqHandler                 0x000058fd   Thumb Code     2  hc32f460_ll_interrupts_share.o(i.USART2_RxFull_IrqHandler)
    USART2_RxTO_IrqHandler                   0x000058ff   Thumb Code     2  hc32f460_ll_interrupts_share.o(i.USART2_RxTO_IrqHandler)
    USART2_TxComplete_IrqHandler             0x00005901   Thumb Code     2  hc32f460_ll_interrupts_share.o(i.USART2_TxComplete_IrqHandler)
    USART2_TxEmpty_IrqHandler                0x00005903   Thumb Code     2  hc32f460_ll_interrupts_share.o(i.USART2_TxEmpty_IrqHandler)
    USART3_RxError_IrqHandler                0x00005905   Thumb Code     2  hc32f460_ll_interrupts_share.o(i.USART3_RxError_IrqHandler)
    USART3_RxFull_IrqHandler                 0x00005907   Thumb Code     2  hc32f460_ll_interrupts_share.o(i.USART3_RxFull_IrqHandler)
    USART3_RxTO_IrqHandler                   0x00005909   Thumb Code     2  hc32f460_ll_interrupts_share.o(i.USART3_RxTO_IrqHandler)
    USART3_TxComplete_IrqHandler             0x0000590b   Thumb Code     2  hc32f460_ll_interrupts_share.o(i.USART3_TxComplete_IrqHandler)
    USART3_TxEmpty_IrqHandler                0x0000590d   Thumb Code     2  hc32f460_ll_interrupts_share.o(i.USART3_TxEmpty_IrqHandler)
    USART4_RxError_IrqHandler                0x0000590f   Thumb Code     2  hc32f460_ll_interrupts_share.o(i.USART4_RxError_IrqHandler)
    USART4_RxFull_IrqHandler                 0x00005911   Thumb Code     2  hc32f460_ll_interrupts_share.o(i.USART4_RxFull_IrqHandler)
    USART4_RxTO_IrqHandler                   0x00005913   Thumb Code     2  hc32f460_ll_interrupts_share.o(i.USART4_RxTO_IrqHandler)
    USART4_TxComplete_IrqHandler             0x00005915   Thumb Code     2  hc32f460_ll_interrupts_share.o(i.USART4_TxComplete_IrqHandler)
    USART4_TxEmpty_IrqHandler                0x00005917   Thumb Code     2  hc32f460_ll_interrupts_share.o(i.USART4_TxEmpty_IrqHandler)
    USBFS_Global_IrqHandler                  0x00005919   Thumb Code     2  hc32f460_ll_interrupts_share.o(i.USBFS_Global_IrqHandler)
    WDT_IrqHandler                           0x0000591b   Thumb Code     2  hc32f460_ll_interrupts_share.o(i.WDT_IrqHandler)
    __ARM_fpclassifyf                        0x0000591d   Thumb Code    38  fpclassifyf.o(i.__ARM_fpclassifyf)
    __mathlib_flt_infnan                     0x000059ad   Thumb Code     6  funder.o(i.__mathlib_flt_infnan)
    __mathlib_flt_overflow                   0x000059b3   Thumb Code    10  funder.o(i.__mathlib_flt_overflow)
    __mathlib_flt_underflow                  0x000059bd   Thumb Code    10  funder.o(i.__mathlib_flt_underflow)
    __scatterload_copy                       0x000059c7   Thumb Code    14  handlers.o(i.__scatterload_copy)
    __scatterload_null                       0x000059d5   Thumb Code     2  handlers.o(i.__scatterload_null)
    __scatterload_zeroinit                   0x000059d7   Thumb Code    14  handlers.o(i.__scatterload_zeroinit)
    __set_errno                              0x000059e5   Thumb Code     6  errno.o(i.__set_errno)
    __mathlib_expf                           0x000059f1   Thumb Code     0  expf.o(i.expf)
    expf                                     0x000059f1   Thumb Code   322  expf.o(i.expf)
    main                                     0x00005b61   Thumb Code   100  main.o(i.main)
    Region$$Table$$Base                      0x00005c04   Number         0  anon$$obj.o(Region$$Table)
    Region$$Table$$Limit                     0x00005c24   Number         0  anon$$obj.o(Region$$Table)
    ecode                                    0x1fff8000   Data           1  control_step.o(.data)
    n                                        0x1fff8004   Data           4  control_step.o(.data)
    ns                                       0x1fff8008   Data           4  control_step.o(.data)
    dir_                                     0x1fff800c   Data           1  control_step.o(.data)
    cmd                                      0x1fff800d   Data           1  control_step.o(.data)
    vn                                       0x1fff8014   Data           4  tim.o(.data)
    vs                                       0x1fff8018   Data           4  tim.o(.data)
    Speed                                    0x1fff8024   Data       80028  control_step.o(.bss)
    Stepper                                  0x2000b8c0   Data          12  control_step.o(.bss)
    SystemCoreClock                          0x2000bacc   Data           4  system_hc32f460.o(.bss.noinit)
    HRC_VALUE                                0x2000bad0   Data           4  system_hc32f460.o(.bss.noinit)
    __initial_sp                             0x2000dad8   Data           0  startup_hc32f460.o(STACK)



==============================================================================

Memory Map of the image

  Image Entry point : 0x00000281

  Load Region LR_IROM1 (Base: 0x00000000, Size: 0x00005c48, Max: 0x00080000, ABSOLUTE)

    Execution Region ER_IROM1 (Exec base: 0x00000000, Load base: 0x00000000, Size: 0x00005c24, Max: 0x00080000, ABSOLUTE)

    Exec Addr    Load Addr    Size         Type   Attr      Idx    E Section Name        Object

    0x00000000   0x00000000   0x00000280   Data   RO            3    RESET               startup_hc32f460.o
    0x00000280   0x00000280   0x00000000   Code   RO         4554  * .ARM.Collect$$$$00000000  mc_w.l(entry.o)
    0x00000280   0x00000280   0x00000004   Code   RO         4624    .ARM.Collect$$$$00000001  mc_w.l(entry2.o)
    0x00000284   0x00000284   0x00000004   Code   RO         4627    .ARM.Collect$$$$00000004  mc_w.l(entry5.o)
    0x00000288   0x00000288   0x00000000   Code   RO         4629    .ARM.Collect$$$$00000008  mc_w.l(entry7b.o)
    0x00000288   0x00000288   0x00000000   Code   RO         4631    .ARM.Collect$$$$0000000A  mc_w.l(entry8b.o)
    0x00000288   0x00000288   0x00000008   Code   RO         4632    .ARM.Collect$$$$0000000B  mc_w.l(entry9a.o)
    0x00000290   0x00000290   0x00000000   Code   RO         4634    .ARM.Collect$$$$0000000D  mc_w.l(entry10a.o)
    0x00000290   0x00000290   0x00000000   Code   RO         4636    .ARM.Collect$$$$0000000F  mc_w.l(entry11a.o)
    0x00000290   0x00000290   0x00000004   Code   RO         4625    .ARM.Collect$$$$00002712  mc_w.l(entry2.o)
    0x00000294   0x00000294   0x00000064   Code   RO            4    .text               startup_hc32f460.o
    0x000002f8   0x000002f8   0x00000024   Code   RO         4557    .text               mc_w.l(memseta.o)
    0x0000031c   0x0000031c   0x000000b0   Code   RO         4559    .text               mf_w.l(fadd.o)
    0x000003cc   0x000003cc   0x00000012   Code   RO         4567    .text               mf_w.l(fflti.o)
    0x000003de   0x000003de   0x00000002   PAD
    0x000003e0   0x000003e0   0x00000014   Code   RO         4579    .text               mf_w.l(cfcmple.o)
    0x000003f4   0x000003f4   0x00000000   Code   RO         4647    .text               mc_w.l(iusefp.o)
    0x000003f4   0x000003f4   0x00000002   Code   RO         2653    i.ADC1_ChCmp_IrqHandler  hc32f460_ll_interrupts_share.o
    0x000003f6   0x000003f6   0x00000002   Code   RO         2654    i.ADC1_SeqA_IrqHandler  hc32f460_ll_interrupts_share.o
    0x000003f8   0x000003f8   0x00000002   Code   RO         2655    i.ADC1_SeqB_IrqHandler  hc32f460_ll_interrupts_share.o
    0x000003fa   0x000003fa   0x00000002   Code   RO         2656    i.ADC1_SeqCmp_IrqHandler  hc32f460_ll_interrupts_share.o
    0x000003fc   0x000003fc   0x00000002   Code   RO         2657    i.ADC2_ChCmp_IrqHandler  hc32f460_ll_interrupts_share.o
    0x000003fe   0x000003fe   0x00000002   Code   RO         2658    i.ADC2_SeqA_IrqHandler  hc32f460_ll_interrupts_share.o
    0x00000400   0x00000400   0x00000020   Data   RO          400    .ARM.__AT_0x00000400  hc32_ll_icg.o
    0x00000420   0x00000420   0x00000064   Code   RO         4561    .text               mf_w.l(fmul.o)
    0x00000484   0x00000484   0x0000007c   Code   RO         4563    .text               mf_w.l(fdiv.o)
    0x00000500   0x00000500   0x00000032   Code   RO         4569    .text               mf_w.l(ffixi.o)
    0x00000532   0x00000532   0x00000028   Code   RO         4571    .text               mf_w.l(ffixui.o)
    0x0000055a   0x0000055a   0x0000006e   Code   RO         4648    .text               mf_w.l(fepilogue.o)
    0x000005c8   0x000005c8   0x00000018   Code   RO         4650    .text               mf_w.l(fscalb.o)
    0x000005e0   0x000005e0   0x0000003c   Code   RO         4652    .text               mf_w.l(frnd.o)
    0x0000061c   0x0000061c   0x00000024   Code   RO         4668    .text               mc_w.l(init.o)
    0x00000640   0x00000640   0x00000002   Code   RO         2659    i.ADC2_SeqB_IrqHandler  hc32f460_ll_interrupts_share.o
    0x00000642   0x00000642   0x00000002   Code   RO         2660    i.ADC2_SeqCmp_IrqHandler  hc32f460_ll_interrupts_share.o
    0x00000644   0x00000644   0x000000b4   Code   RO          274    i.App_ClkCfg        tim.o
    0x000006f8   0x000006f8   0x00000094   Code   RO          275    i.App_IntCfg        tim.o
    0x0000078c   0x0000078c   0x00000090   Code   RO          187    i.App_PortCfg       control_step.o
    0x0000081c   0x0000081c   0x0000008c   Code   RO         4474    i.App_SPIxCfg       mp6602.o
    0x000008a8   0x000008a8   0x000000d0   Code   RO          276    i.App_TimerACfg     tim.o
    0x00000978   0x00000978   0x00000002   Code   RO         2661    i.CAN_IrqHandler    hc32f460_ll_interrupts_share.o
    0x0000097a   0x0000097a   0x00000002   PAD
    0x0000097c   0x0000097c   0x00000050   Code   RO         1145    i.CLK_GetStableStatus  hc32_ll_clk.o
    0x000009cc   0x000009cc   0x000000b8   Code   RO         1155    i.CLK_PLLCmd        hc32_ll_clk.o
    0x00000a84   0x00000a84   0x00000294   Code   RO         1156    i.CLK_PLLInit       hc32_ll_clk.o
    0x00000d18   0x00000d18   0x00000052   Code   RO         1157    i.CLK_PLLStructInit  hc32_ll_clk.o
    0x00000d6a   0x00000d6a   0x00000014   Code   RO         1161    i.CLK_SetClockDiv   hc32_ll_clk.o
    0x00000d7e   0x00000d7e   0x00000010   Code   RO         1165    i.CLK_SetSysClockSrc  hc32_ll_clk.o
    0x00000d8e   0x00000d8e   0x00000030   Code   RO         1170    i.CLK_WaitStable    hc32_ll_clk.o
    0x00000dbe   0x00000dbe   0x00000002   PAD
    0x00000dc0   0x00000dc0   0x000000b4   Code   RO         1174    i.CLK_XtalCmd       hc32_ll_clk.o
    0x00000e74   0x00000e74   0x00000134   Code   RO         1175    i.CLK_XtalInit      hc32_ll_clk.o
    0x00000fa8   0x00000fa8   0x00000002   Code   RO         2662    i.CLK_XtalStop_IrqHandler  hc32f460_ll_interrupts_share.o
    0x00000faa   0x00000faa   0x0000001e   Code   RO         1178    i.CLK_XtalStructInit  hc32_ll_clk.o
    0x00000fc8   0x00000fc8   0x00000184   Code   RO          188    i.Calcspeed_e       control_step.o
    0x0000114c   0x0000114c   0x00000002   Code   RO         2663    i.DCU1_IrqHandler   hc32f460_ll_interrupts_share.o
    0x0000114e   0x0000114e   0x00000002   Code   RO         2664    i.DCU2_IrqHandler   hc32f460_ll_interrupts_share.o
    0x00001150   0x00001150   0x00000002   Code   RO         2665    i.DCU3_IrqHandler   hc32f460_ll_interrupts_share.o
    0x00001152   0x00001152   0x00000002   Code   RO         2666    i.DCU4_IrqHandler   hc32f460_ll_interrupts_share.o
    0x00001154   0x00001154   0x00000004   Code   RO          421    i.DDL_AssertHandler  hc32_ll_utility.o
    0x00001158   0x00001158   0x00000040   Code   RO          423    i.DDL_DelayUS       hc32_ll_utility.o
    0x00001198   0x00001198   0x00000002   Code   RO         2667    i.DMA1_BTC0_IrqHandler  hc32f460_ll_interrupts_share.o
    0x0000119a   0x0000119a   0x00000002   Code   RO         2668    i.DMA1_BTC1_IrqHandler  hc32f460_ll_interrupts_share.o
    0x0000119c   0x0000119c   0x00000002   Code   RO         2669    i.DMA1_BTC2_IrqHandler  hc32f460_ll_interrupts_share.o
    0x0000119e   0x0000119e   0x00000002   Code   RO         2670    i.DMA1_BTC3_IrqHandler  hc32f460_ll_interrupts_share.o
    0x000011a0   0x000011a0   0x00000002   Code   RO         2671    i.DMA1_Error0_IrqHandler  hc32f460_ll_interrupts_share.o
    0x000011a2   0x000011a2   0x00000002   Code   RO         2672    i.DMA1_Error1_IrqHandler  hc32f460_ll_interrupts_share.o
    0x000011a4   0x000011a4   0x00000002   Code   RO         2673    i.DMA1_Error2_IrqHandler  hc32f460_ll_interrupts_share.o
    0x000011a6   0x000011a6   0x00000002   Code   RO         2674    i.DMA1_Error3_IrqHandler  hc32f460_ll_interrupts_share.o
    0x000011a8   0x000011a8   0x00000002   Code   RO         2675    i.DMA1_TC0_IrqHandler  hc32f460_ll_interrupts_share.o
    0x000011aa   0x000011aa   0x00000002   Code   RO         2676    i.DMA1_TC1_IrqHandler  hc32f460_ll_interrupts_share.o
    0x000011ac   0x000011ac   0x00000002   Code   RO         2677    i.DMA1_TC2_IrqHandler  hc32f460_ll_interrupts_share.o
    0x000011ae   0x000011ae   0x00000002   Code   RO         2678    i.DMA1_TC3_IrqHandler  hc32f460_ll_interrupts_share.o
    0x000011b0   0x000011b0   0x00000002   Code   RO         2679    i.DMA2_BTC0_IrqHandler  hc32f460_ll_interrupts_share.o
    0x000011b2   0x000011b2   0x00000002   Code   RO         2680    i.DMA2_BTC1_IrqHandler  hc32f460_ll_interrupts_share.o
    0x000011b4   0x000011b4   0x00000002   Code   RO         2681    i.DMA2_BTC2_IrqHandler  hc32f460_ll_interrupts_share.o
    0x000011b6   0x000011b6   0x00000002   Code   RO         2682    i.DMA2_BTC3_IrqHandler  hc32f460_ll_interrupts_share.o
    0x000011b8   0x000011b8   0x00000002   Code   RO         2683    i.DMA2_Error0_IrqHandler  hc32f460_ll_interrupts_share.o
    0x000011ba   0x000011ba   0x00000002   Code   RO         2684    i.DMA2_Error1_IrqHandler  hc32f460_ll_interrupts_share.o
    0x000011bc   0x000011bc   0x00000002   Code   RO         2685    i.DMA2_Error2_IrqHandler  hc32f460_ll_interrupts_share.o
    0x000011be   0x000011be   0x00000002   Code   RO         2686    i.DMA2_Error3_IrqHandler  hc32f460_ll_interrupts_share.o
    0x000011c0   0x000011c0   0x00000002   Code   RO         2687    i.DMA2_TC0_IrqHandler  hc32f460_ll_interrupts_share.o
    0x000011c2   0x000011c2   0x00000002   Code   RO         2688    i.DMA2_TC1_IrqHandler  hc32f460_ll_interrupts_share.o
    0x000011c4   0x000011c4   0x00000002   Code   RO         2689    i.DMA2_TC2_IrqHandler  hc32f460_ll_interrupts_share.o
    0x000011c6   0x000011c6   0x00000002   Code   RO         2690    i.DMA2_TC3_IrqHandler  hc32f460_ll_interrupts_share.o
    0x000011c8   0x000011c8   0x00000002   Code   RO         2691    i.EFM_ColError_IrqHandler  hc32f460_ll_interrupts_share.o
    0x000011ca   0x000011ca   0x00000002   Code   RO         2692    i.EFM_OpEnd_IrqHandler  hc32f460_ll_interrupts_share.o
    0x000011cc   0x000011cc   0x00000002   Code   RO         2693    i.EFM_ProgramEraseError_IrqHandler  hc32f460_ll_interrupts_share.o
    0x000011ce   0x000011ce   0x00000002   PAD
    0x000011d0   0x000011d0   0x000000a8   Code   RO          944    i.EFM_SetWaitCycle  hc32_ll_efm.o
    0x00001278   0x00001278   0x00000002   Code   RO         2694    i.EMB_GR0_IrqHandler  hc32f460_ll_interrupts_share.o
    0x0000127a   0x0000127a   0x00000002   Code   RO         2695    i.EMB_GR1_IrqHandler  hc32f460_ll_interrupts_share.o
    0x0000127c   0x0000127c   0x00000002   Code   RO         2696    i.EMB_GR2_IrqHandler  hc32f460_ll_interrupts_share.o
    0x0000127e   0x0000127e   0x00000002   Code   RO         2697    i.EMB_GR3_IrqHandler  hc32f460_ll_interrupts_share.o
    0x00001280   0x00001280   0x00000002   Code   RO         2698    i.EXTINT00_IrqHandler  hc32f460_ll_interrupts_share.o
    0x00001282   0x00001282   0x00000002   Code   RO         2699    i.EXTINT01_IrqHandler  hc32f460_ll_interrupts_share.o
    0x00001284   0x00001284   0x00000002   Code   RO         2700    i.EXTINT02_IrqHandler  hc32f460_ll_interrupts_share.o
    0x00001286   0x00001286   0x00000002   Code   RO         2701    i.EXTINT03_IrqHandler  hc32f460_ll_interrupts_share.o
    0x00001288   0x00001288   0x00000002   Code   RO         2702    i.EXTINT04_IrqHandler  hc32f460_ll_interrupts_share.o
    0x0000128a   0x0000128a   0x00000002   Code   RO         2703    i.EXTINT05_IrqHandler  hc32f460_ll_interrupts_share.o
    0x0000128c   0x0000128c   0x00000002   Code   RO         2704    i.EXTINT06_IrqHandler  hc32f460_ll_interrupts_share.o
    0x0000128e   0x0000128e   0x00000002   Code   RO         2705    i.EXTINT07_IrqHandler  hc32f460_ll_interrupts_share.o
    0x00001290   0x00001290   0x00000002   Code   RO         2706    i.EXTINT08_IrqHandler  hc32f460_ll_interrupts_share.o
    0x00001292   0x00001292   0x00000002   Code   RO         2707    i.EXTINT09_IrqHandler  hc32f460_ll_interrupts_share.o
    0x00001294   0x00001294   0x00000002   Code   RO         2708    i.EXTINT10_IrqHandler  hc32f460_ll_interrupts_share.o
    0x00001296   0x00001296   0x00000002   Code   RO         2709    i.EXTINT11_IrqHandler  hc32f460_ll_interrupts_share.o
    0x00001298   0x00001298   0x00000002   Code   RO         2710    i.EXTINT12_IrqHandler  hc32f460_ll_interrupts_share.o
    0x0000129a   0x0000129a   0x00000002   Code   RO         2711    i.EXTINT13_IrqHandler  hc32f460_ll_interrupts_share.o
    0x0000129c   0x0000129c   0x00000002   Code   RO         2712    i.EXTINT14_IrqHandler  hc32f460_ll_interrupts_share.o
    0x0000129e   0x0000129e   0x00000002   Code   RO         2713    i.EXTINT15_IrqHandler  hc32f460_ll_interrupts_share.o
    0x000012a0   0x000012a0   0x00000074   Code   RO         1547    i.FCG_Fcg1PeriphClockCmd  hc32_ll_fcg.o
    0x00001314   0x00001314   0x00000074   Code   RO         1548    i.FCG_Fcg2PeriphClockCmd  hc32_ll_fcg.o
    0x00001388   0x00001388   0x00000002   Code   RO         2714    i.FCM_End_IrqHandler  hc32f460_ll_interrupts_share.o
    0x0000138a   0x0000138a   0x00000002   Code   RO         2715    i.FCM_Error_IrqHandler  hc32f460_ll_interrupts_share.o
    0x0000138c   0x0000138c   0x00000002   Code   RO         2716    i.FCM_Ovf_IrqHandler  hc32f460_ll_interrupts_share.o
    0x0000138e   0x0000138e   0x00000002   PAD
    0x00001390   0x00001390   0x000001f0   Code   RO         1409    i.GPIO_Init         hc32_ll_gpio.o
    0x00001580   0x00001580   0x00000074   Code   RO         1416    i.GPIO_ResetPins    hc32_ll_gpio.o
    0x000015f4   0x000015f4   0x000000dc   Code   RO         1418    i.GPIO_SetFunc      hc32_ll_gpio.o
    0x000016d0   0x000016d0   0x00000074   Code   RO         1419    i.GPIO_SetPins      hc32_ll_gpio.o
    0x00001744   0x00001744   0x0000007c   Code   RO         1420    i.GPIO_SetReadWaitCycle  hc32_ll_gpio.o
    0x000017c0   0x000017c0   0x00000020   Code   RO         1422    i.GPIO_StructInit   hc32_ll_gpio.o
    0x000017e0   0x000017e0   0x00000002   Code   RO         2717    i.I2C1_EE_IrqHandler  hc32f460_ll_interrupts_share.o
    0x000017e2   0x000017e2   0x00000002   Code   RO         2718    i.I2C1_RxFull_IrqHandler  hc32f460_ll_interrupts_share.o
    0x000017e4   0x000017e4   0x00000002   Code   RO         2719    i.I2C1_TxComplete_IrqHandler  hc32f460_ll_interrupts_share.o
    0x000017e6   0x000017e6   0x00000002   Code   RO         2720    i.I2C1_TxEmpty_IrqHandler  hc32f460_ll_interrupts_share.o
    0x000017e8   0x000017e8   0x00000002   Code   RO         2721    i.I2C2_EE_IrqHandler  hc32f460_ll_interrupts_share.o
    0x000017ea   0x000017ea   0x00000002   Code   RO         2722    i.I2C2_RxFull_IrqHandler  hc32f460_ll_interrupts_share.o
    0x000017ec   0x000017ec   0x00000002   Code   RO         2723    i.I2C2_TxComplete_IrqHandler  hc32f460_ll_interrupts_share.o
    0x000017ee   0x000017ee   0x00000002   Code   RO         2724    i.I2C2_TxEmpty_IrqHandler  hc32f460_ll_interrupts_share.o
    0x000017f0   0x000017f0   0x00000002   Code   RO         2725    i.I2C3_EE_IrqHandler  hc32f460_ll_interrupts_share.o
    0x000017f2   0x000017f2   0x00000002   Code   RO         2726    i.I2C3_RxFull_IrqHandler  hc32f460_ll_interrupts_share.o
    0x000017f4   0x000017f4   0x00000002   Code   RO         2727    i.I2C3_TxComplete_IrqHandler  hc32f460_ll_interrupts_share.o
    0x000017f6   0x000017f6   0x00000002   Code   RO         2728    i.I2C3_TxEmpty_IrqHandler  hc32f460_ll_interrupts_share.o
    0x000017f8   0x000017f8   0x00000002   Code   RO         2729    i.I2S1_Error_IrqHandler  hc32f460_ll_interrupts_share.o
    0x000017fa   0x000017fa   0x00000002   Code   RO         2730    i.I2S1_Rx_IrqHandler  hc32f460_ll_interrupts_share.o
    0x000017fc   0x000017fc   0x00000002   Code   RO         2731    i.I2S1_Tx_IrqHandler  hc32f460_ll_interrupts_share.o
    0x000017fe   0x000017fe   0x00000002   Code   RO         2732    i.I2S2_Error_IrqHandler  hc32f460_ll_interrupts_share.o
    0x00001800   0x00001800   0x00000002   Code   RO         2733    i.I2S2_Rx_IrqHandler  hc32f460_ll_interrupts_share.o
    0x00001802   0x00001802   0x00000002   Code   RO         2734    i.I2S2_Tx_IrqHandler  hc32f460_ll_interrupts_share.o
    0x00001804   0x00001804   0x00000002   Code   RO         2735    i.I2S3_Error_IrqHandler  hc32f460_ll_interrupts_share.o
    0x00001806   0x00001806   0x00000002   Code   RO         2736    i.I2S3_Rx_IrqHandler  hc32f460_ll_interrupts_share.o
    0x00001808   0x00001808   0x00000002   Code   RO         2737    i.I2S3_Tx_IrqHandler  hc32f460_ll_interrupts_share.o
    0x0000180a   0x0000180a   0x00000002   Code   RO         2738    i.I2S4_Error_IrqHandler  hc32f460_ll_interrupts_share.o
    0x0000180c   0x0000180c   0x00000002   Code   RO         2739    i.I2S4_Rx_IrqHandler  hc32f460_ll_interrupts_share.o
    0x0000180e   0x0000180e   0x00000002   Code   RO         2740    i.I2S4_Tx_IrqHandler  hc32f460_ll_interrupts_share.o
    0x00001810   0x00001810   0x000000d0   Code   RO         1771    i.INTC_IrqSignIn    hc32_ll_interrupts.o
    0x000018e0   0x000018e0   0x0000003c   Code   RO          277    i.INT_SRC_TMRA_1_OVF_IrqCallback  tim.o
    0x0000191c   0x0000191c   0x00000024   Code   RO          278    i.INT_SRC_TMRA_3_CMP_IrqCallback  tim.o
    0x00001940   0x00001940   0x00000002   Code   RO          279    i.INT_SRC_TMRA_3_OVF_IrqCallback  tim.o
    0x00001942   0x00001942   0x00000002   PAD
    0x00001944   0x00001944   0x00000014   Code   RO         1776    i.IRQ000_Handler    hc32_ll_interrupts.o
    0x00001958   0x00001958   0x00000014   Code   RO         1777    i.IRQ001_Handler    hc32_ll_interrupts.o
    0x0000196c   0x0000196c   0x00000014   Code   RO         1778    i.IRQ002_Handler    hc32_ll_interrupts.o
    0x00001980   0x00001980   0x00000014   Code   RO         1779    i.IRQ003_Handler    hc32_ll_interrupts.o
    0x00001994   0x00001994   0x00000014   Code   RO         1780    i.IRQ004_Handler    hc32_ll_interrupts.o
    0x000019a8   0x000019a8   0x00000014   Code   RO         1781    i.IRQ005_Handler    hc32_ll_interrupts.o
    0x000019bc   0x000019bc   0x00000014   Code   RO         1782    i.IRQ006_Handler    hc32_ll_interrupts.o
    0x000019d0   0x000019d0   0x00000014   Code   RO         1783    i.IRQ007_Handler    hc32_ll_interrupts.o
    0x000019e4   0x000019e4   0x00000014   Code   RO         1784    i.IRQ008_Handler    hc32_ll_interrupts.o
    0x000019f8   0x000019f8   0x00000014   Code   RO         1785    i.IRQ009_Handler    hc32_ll_interrupts.o
    0x00001a0c   0x00001a0c   0x00000014   Code   RO         1786    i.IRQ010_Handler    hc32_ll_interrupts.o
    0x00001a20   0x00001a20   0x00000014   Code   RO         1787    i.IRQ011_Handler    hc32_ll_interrupts.o
    0x00001a34   0x00001a34   0x00000014   Code   RO         1788    i.IRQ012_Handler    hc32_ll_interrupts.o
    0x00001a48   0x00001a48   0x00000014   Code   RO         1789    i.IRQ013_Handler    hc32_ll_interrupts.o
    0x00001a5c   0x00001a5c   0x00000014   Code   RO         1790    i.IRQ014_Handler    hc32_ll_interrupts.o
    0x00001a70   0x00001a70   0x00000014   Code   RO         1791    i.IRQ015_Handler    hc32_ll_interrupts.o
    0x00001a84   0x00001a84   0x00000014   Code   RO         1792    i.IRQ016_Handler    hc32_ll_interrupts.o
    0x00001a98   0x00001a98   0x00000014   Code   RO         1793    i.IRQ017_Handler    hc32_ll_interrupts.o
    0x00001aac   0x00001aac   0x00000014   Code   RO         1794    i.IRQ018_Handler    hc32_ll_interrupts.o
    0x00001ac0   0x00001ac0   0x00000014   Code   RO         1795    i.IRQ019_Handler    hc32_ll_interrupts.o
    0x00001ad4   0x00001ad4   0x00000014   Code   RO         1796    i.IRQ020_Handler    hc32_ll_interrupts.o
    0x00001ae8   0x00001ae8   0x00000014   Code   RO         1797    i.IRQ021_Handler    hc32_ll_interrupts.o
    0x00001afc   0x00001afc   0x00000014   Code   RO         1798    i.IRQ022_Handler    hc32_ll_interrupts.o
    0x00001b10   0x00001b10   0x00000014   Code   RO         1799    i.IRQ023_Handler    hc32_ll_interrupts.o
    0x00001b24   0x00001b24   0x00000014   Code   RO         1800    i.IRQ024_Handler    hc32_ll_interrupts.o
    0x00001b38   0x00001b38   0x00000014   Code   RO         1801    i.IRQ025_Handler    hc32_ll_interrupts.o
    0x00001b4c   0x00001b4c   0x00000014   Code   RO         1802    i.IRQ026_Handler    hc32_ll_interrupts.o
    0x00001b60   0x00001b60   0x00000014   Code   RO         1803    i.IRQ027_Handler    hc32_ll_interrupts.o
    0x00001b74   0x00001b74   0x00000014   Code   RO         1804    i.IRQ028_Handler    hc32_ll_interrupts.o
    0x00001b88   0x00001b88   0x00000014   Code   RO         1805    i.IRQ029_Handler    hc32_ll_interrupts.o
    0x00001b9c   0x00001b9c   0x00000014   Code   RO         1806    i.IRQ030_Handler    hc32_ll_interrupts.o
    0x00001bb0   0x00001bb0   0x00000014   Code   RO         1807    i.IRQ031_Handler    hc32_ll_interrupts.o
    0x00001bc4   0x00001bc4   0x00000014   Code   RO         1808    i.IRQ032_Handler    hc32_ll_interrupts.o
    0x00001bd8   0x00001bd8   0x00000014   Code   RO         1809    i.IRQ033_Handler    hc32_ll_interrupts.o
    0x00001bec   0x00001bec   0x00000014   Code   RO         1810    i.IRQ034_Handler    hc32_ll_interrupts.o
    0x00001c00   0x00001c00   0x00000014   Code   RO         1811    i.IRQ035_Handler    hc32_ll_interrupts.o
    0x00001c14   0x00001c14   0x00000014   Code   RO         1812    i.IRQ036_Handler    hc32_ll_interrupts.o
    0x00001c28   0x00001c28   0x00000014   Code   RO         1813    i.IRQ037_Handler    hc32_ll_interrupts.o
    0x00001c3c   0x00001c3c   0x00000014   Code   RO         1814    i.IRQ038_Handler    hc32_ll_interrupts.o
    0x00001c50   0x00001c50   0x00000014   Code   RO         1815    i.IRQ039_Handler    hc32_ll_interrupts.o
    0x00001c64   0x00001c64   0x00000014   Code   RO         1816    i.IRQ040_Handler    hc32_ll_interrupts.o
    0x00001c78   0x00001c78   0x00000014   Code   RO         1817    i.IRQ041_Handler    hc32_ll_interrupts.o
    0x00001c8c   0x00001c8c   0x00000014   Code   RO         1818    i.IRQ042_Handler    hc32_ll_interrupts.o
    0x00001ca0   0x00001ca0   0x00000014   Code   RO         1819    i.IRQ043_Handler    hc32_ll_interrupts.o
    0x00001cb4   0x00001cb4   0x00000014   Code   RO         1820    i.IRQ044_Handler    hc32_ll_interrupts.o
    0x00001cc8   0x00001cc8   0x00000014   Code   RO         1821    i.IRQ045_Handler    hc32_ll_interrupts.o
    0x00001cdc   0x00001cdc   0x00000014   Code   RO         1822    i.IRQ046_Handler    hc32_ll_interrupts.o
    0x00001cf0   0x00001cf0   0x00000014   Code   RO         1823    i.IRQ047_Handler    hc32_ll_interrupts.o
    0x00001d04   0x00001d04   0x00000014   Code   RO         1824    i.IRQ048_Handler    hc32_ll_interrupts.o
    0x00001d18   0x00001d18   0x00000014   Code   RO         1825    i.IRQ049_Handler    hc32_ll_interrupts.o
    0x00001d2c   0x00001d2c   0x00000014   Code   RO         1826    i.IRQ050_Handler    hc32_ll_interrupts.o
    0x00001d40   0x00001d40   0x00000014   Code   RO         1827    i.IRQ051_Handler    hc32_ll_interrupts.o
    0x00001d54   0x00001d54   0x00000014   Code   RO         1828    i.IRQ052_Handler    hc32_ll_interrupts.o
    0x00001d68   0x00001d68   0x00000014   Code   RO         1829    i.IRQ053_Handler    hc32_ll_interrupts.o
    0x00001d7c   0x00001d7c   0x00000014   Code   RO         1830    i.IRQ054_Handler    hc32_ll_interrupts.o
    0x00001d90   0x00001d90   0x00000014   Code   RO         1831    i.IRQ055_Handler    hc32_ll_interrupts.o
    0x00001da4   0x00001da4   0x00000014   Code   RO         1832    i.IRQ056_Handler    hc32_ll_interrupts.o
    0x00001db8   0x00001db8   0x00000014   Code   RO         1833    i.IRQ057_Handler    hc32_ll_interrupts.o
    0x00001dcc   0x00001dcc   0x00000014   Code   RO         1834    i.IRQ058_Handler    hc32_ll_interrupts.o
    0x00001de0   0x00001de0   0x00000014   Code   RO         1835    i.IRQ059_Handler    hc32_ll_interrupts.o
    0x00001df4   0x00001df4   0x00000014   Code   RO         1836    i.IRQ060_Handler    hc32_ll_interrupts.o
    0x00001e08   0x00001e08   0x00000014   Code   RO         1837    i.IRQ061_Handler    hc32_ll_interrupts.o
    0x00001e1c   0x00001e1c   0x00000014   Code   RO         1838    i.IRQ062_Handler    hc32_ll_interrupts.o
    0x00001e30   0x00001e30   0x00000014   Code   RO         1839    i.IRQ063_Handler    hc32_ll_interrupts.o
    0x00001e44   0x00001e44   0x00000014   Code   RO         1840    i.IRQ064_Handler    hc32_ll_interrupts.o
    0x00001e58   0x00001e58   0x00000014   Code   RO         1841    i.IRQ065_Handler    hc32_ll_interrupts.o
    0x00001e6c   0x00001e6c   0x00000014   Code   RO         1842    i.IRQ066_Handler    hc32_ll_interrupts.o
    0x00001e80   0x00001e80   0x00000014   Code   RO         1843    i.IRQ067_Handler    hc32_ll_interrupts.o
    0x00001e94   0x00001e94   0x00000014   Code   RO         1844    i.IRQ068_Handler    hc32_ll_interrupts.o
    0x00001ea8   0x00001ea8   0x00000014   Code   RO         1845    i.IRQ069_Handler    hc32_ll_interrupts.o
    0x00001ebc   0x00001ebc   0x00000014   Code   RO         1846    i.IRQ070_Handler    hc32_ll_interrupts.o
    0x00001ed0   0x00001ed0   0x00000014   Code   RO         1847    i.IRQ071_Handler    hc32_ll_interrupts.o
    0x00001ee4   0x00001ee4   0x00000014   Code   RO         1848    i.IRQ072_Handler    hc32_ll_interrupts.o
    0x00001ef8   0x00001ef8   0x00000014   Code   RO         1849    i.IRQ073_Handler    hc32_ll_interrupts.o
    0x00001f0c   0x00001f0c   0x00000014   Code   RO         1850    i.IRQ074_Handler    hc32_ll_interrupts.o
    0x00001f20   0x00001f20   0x00000014   Code   RO         1851    i.IRQ075_Handler    hc32_ll_interrupts.o
    0x00001f34   0x00001f34   0x00000014   Code   RO         1852    i.IRQ076_Handler    hc32_ll_interrupts.o
    0x00001f48   0x00001f48   0x00000014   Code   RO         1853    i.IRQ077_Handler    hc32_ll_interrupts.o
    0x00001f5c   0x00001f5c   0x00000014   Code   RO         1854    i.IRQ078_Handler    hc32_ll_interrupts.o
    0x00001f70   0x00001f70   0x00000014   Code   RO         1855    i.IRQ079_Handler    hc32_ll_interrupts.o
    0x00001f84   0x00001f84   0x00000014   Code   RO         1856    i.IRQ080_Handler    hc32_ll_interrupts.o
    0x00001f98   0x00001f98   0x00000014   Code   RO         1857    i.IRQ081_Handler    hc32_ll_interrupts.o
    0x00001fac   0x00001fac   0x00000014   Code   RO         1858    i.IRQ082_Handler    hc32_ll_interrupts.o
    0x00001fc0   0x00001fc0   0x00000014   Code   RO         1859    i.IRQ083_Handler    hc32_ll_interrupts.o
    0x00001fd4   0x00001fd4   0x00000014   Code   RO         1860    i.IRQ084_Handler    hc32_ll_interrupts.o
    0x00001fe8   0x00001fe8   0x00000014   Code   RO         1861    i.IRQ085_Handler    hc32_ll_interrupts.o
    0x00001ffc   0x00001ffc   0x00000014   Code   RO         1862    i.IRQ086_Handler    hc32_ll_interrupts.o
    0x00002010   0x00002010   0x00000014   Code   RO         1863    i.IRQ087_Handler    hc32_ll_interrupts.o
    0x00002024   0x00002024   0x00000014   Code   RO         1864    i.IRQ088_Handler    hc32_ll_interrupts.o
    0x00002038   0x00002038   0x00000014   Code   RO         1865    i.IRQ089_Handler    hc32_ll_interrupts.o
    0x0000204c   0x0000204c   0x00000014   Code   RO         1866    i.IRQ090_Handler    hc32_ll_interrupts.o
    0x00002060   0x00002060   0x00000014   Code   RO         1867    i.IRQ091_Handler    hc32_ll_interrupts.o
    0x00002074   0x00002074   0x00000014   Code   RO         1868    i.IRQ092_Handler    hc32_ll_interrupts.o
    0x00002088   0x00002088   0x00000014   Code   RO         1869    i.IRQ093_Handler    hc32_ll_interrupts.o
    0x0000209c   0x0000209c   0x00000014   Code   RO         1870    i.IRQ094_Handler    hc32_ll_interrupts.o
    0x000020b0   0x000020b0   0x00000014   Code   RO         1871    i.IRQ095_Handler    hc32_ll_interrupts.o
    0x000020c4   0x000020c4   0x00000014   Code   RO         1872    i.IRQ096_Handler    hc32_ll_interrupts.o
    0x000020d8   0x000020d8   0x00000014   Code   RO         1873    i.IRQ097_Handler    hc32_ll_interrupts.o
    0x000020ec   0x000020ec   0x00000014   Code   RO         1874    i.IRQ098_Handler    hc32_ll_interrupts.o
    0x00002100   0x00002100   0x00000014   Code   RO         1875    i.IRQ099_Handler    hc32_ll_interrupts.o
    0x00002114   0x00002114   0x00000014   Code   RO         1876    i.IRQ100_Handler    hc32_ll_interrupts.o
    0x00002128   0x00002128   0x00000014   Code   RO         1877    i.IRQ101_Handler    hc32_ll_interrupts.o
    0x0000213c   0x0000213c   0x00000014   Code   RO         1878    i.IRQ102_Handler    hc32_ll_interrupts.o
    0x00002150   0x00002150   0x00000014   Code   RO         1879    i.IRQ103_Handler    hc32_ll_interrupts.o
    0x00002164   0x00002164   0x00000014   Code   RO         1880    i.IRQ104_Handler    hc32_ll_interrupts.o
    0x00002178   0x00002178   0x00000014   Code   RO         1881    i.IRQ105_Handler    hc32_ll_interrupts.o
    0x0000218c   0x0000218c   0x00000014   Code   RO         1882    i.IRQ106_Handler    hc32_ll_interrupts.o
    0x000021a0   0x000021a0   0x00000014   Code   RO         1883    i.IRQ107_Handler    hc32_ll_interrupts.o
    0x000021b4   0x000021b4   0x00000014   Code   RO         1884    i.IRQ108_Handler    hc32_ll_interrupts.o
    0x000021c8   0x000021c8   0x00000014   Code   RO         1885    i.IRQ109_Handler    hc32_ll_interrupts.o
    0x000021dc   0x000021dc   0x00000014   Code   RO         1886    i.IRQ110_Handler    hc32_ll_interrupts.o
    0x000021f0   0x000021f0   0x00000014   Code   RO         1887    i.IRQ111_Handler    hc32_ll_interrupts.o
    0x00002204   0x00002204   0x00000014   Code   RO         1888    i.IRQ112_Handler    hc32_ll_interrupts.o
    0x00002218   0x00002218   0x00000014   Code   RO         1889    i.IRQ113_Handler    hc32_ll_interrupts.o
    0x0000222c   0x0000222c   0x00000014   Code   RO         1890    i.IRQ114_Handler    hc32_ll_interrupts.o
    0x00002240   0x00002240   0x00000014   Code   RO         1891    i.IRQ115_Handler    hc32_ll_interrupts.o
    0x00002254   0x00002254   0x00000014   Code   RO         1892    i.IRQ116_Handler    hc32_ll_interrupts.o
    0x00002268   0x00002268   0x00000014   Code   RO         1893    i.IRQ117_Handler    hc32_ll_interrupts.o
    0x0000227c   0x0000227c   0x00000014   Code   RO         1894    i.IRQ118_Handler    hc32_ll_interrupts.o
    0x00002290   0x00002290   0x00000014   Code   RO         1895    i.IRQ119_Handler    hc32_ll_interrupts.o
    0x000022a4   0x000022a4   0x00000014   Code   RO         1896    i.IRQ120_Handler    hc32_ll_interrupts.o
    0x000022b8   0x000022b8   0x00000014   Code   RO         1897    i.IRQ121_Handler    hc32_ll_interrupts.o
    0x000022cc   0x000022cc   0x00000014   Code   RO         1898    i.IRQ122_Handler    hc32_ll_interrupts.o
    0x000022e0   0x000022e0   0x00000014   Code   RO         1899    i.IRQ123_Handler    hc32_ll_interrupts.o
    0x000022f4   0x000022f4   0x00000014   Code   RO         1900    i.IRQ124_Handler    hc32_ll_interrupts.o
    0x00002308   0x00002308   0x00000014   Code   RO         1901    i.IRQ125_Handler    hc32_ll_interrupts.o
    0x0000231c   0x0000231c   0x00000014   Code   RO         1902    i.IRQ126_Handler    hc32_ll_interrupts.o
    0x00002330   0x00002330   0x00000014   Code   RO         1903    i.IRQ127_Handler    hc32_ll_interrupts.o
    0x00002344   0x00002344   0x00000154   Code   RO         2742    i.IRQ128_Handler    hc32f460_ll_interrupts_share.o
    0x00002498   0x00002498   0x00000498   Code   RO         2743    i.IRQ129_Handler    hc32f460_ll_interrupts_share.o
    0x00002930   0x00002930   0x000000e8   Code   RO         2744    i.IRQ130_Handler    hc32f460_ll_interrupts_share.o
    0x00002a18   0x00002a18   0x000002c8   Code   RO         2745    i.IRQ131_Handler    hc32f460_ll_interrupts_share.o
    0x00002ce0   0x00002ce0   0x00000180   Code   RO         2746    i.IRQ132_Handler    hc32f460_ll_interrupts_share.o
    0x00002e60   0x00002e60   0x00000344   Code   RO         2747    i.IRQ136_Handler    hc32f460_ll_interrupts_share.o
    0x000031a4   0x000031a4   0x00000288   Code   RO         2748    i.IRQ137_Handler    hc32f460_ll_interrupts_share.o
    0x0000342c   0x0000342c   0x00000230   Code   RO         2749    i.IRQ138_Handler    hc32f460_ll_interrupts_share.o
    0x0000365c   0x0000365c   0x00000124   Code   RO         2750    i.IRQ139_Handler    hc32f460_ll_interrupts_share.o
    0x00003780   0x00003780   0x00000214   Code   RO         2751    i.IRQ140_Handler    hc32f460_ll_interrupts_share.o
    0x00003994   0x00003994   0x00000268   Code   RO         2752    i.IRQ141_Handler    hc32f460_ll_interrupts_share.o
    0x00003bfc   0x00003bfc   0x0000010c   Code   RO         2753    i.IRQ142_Handler    hc32f460_ll_interrupts_share.o
    0x00003d08   0x00003d08   0x0000010c   Code   RO         2754    i.IRQ143_Handler    hc32f460_ll_interrupts_share.o
    0x00003e14   0x00003e14   0x00000090   Code   RO          348    i.LL_PERIPH_WE      hc32_ll.o
    0x00003ea4   0x00003ea4   0x00000088   Code   RO          349    i.LL_PERIPH_WP      hc32_ll.o
    0x00003f2c   0x00003f2c   0x00000064   Code   RO          504    i.PWC_HighSpeedToHighPerformance  hc32_ll_pwc.o
    0x00003f90   0x00003f90   0x00000002   Code   RO         2755    i.PWC_LVD1_IrqHandler  hc32f460_ll_interrupts_share.o
    0x00003f92   0x00003f92   0x00000002   Code   RO         2756    i.PWC_LVD2_IrqHandler  hc32f460_ll_interrupts_share.o
    0x00003f94   0x00003f94   0x0000001c   Code   RO          350    i.PWC_REG_Lock      hc32_ll.o
    0x00003fb0   0x00003fb0   0x00000018   Code   RO          351    i.PWC_REG_Unlock    hc32_ll.o
    0x00003fc8   0x00003fc8   0x00000002   Code   RO         2757    i.PWC_WakeupTimer_IrqHandler  hc32f460_ll_interrupts_share.o
    0x00003fca   0x00003fca   0x00000002   Code   RO         2758    i.QSPI_Error_IrqHandler  hc32f460_ll_interrupts_share.o
    0x00003fcc   0x00003fcc   0x00000002   Code   RO         2759    i.SDIOC1_IrqHandler  hc32f460_ll_interrupts_share.o
    0x00003fce   0x00003fce   0x00000002   Code   RO         2760    i.SDIOC2_IrqHandler  hc32f460_ll_interrupts_share.o
    0x00003fd0   0x00003fd0   0x00000002   Code   RO         2761    i.SPI1_Error_IrqHandler  hc32f460_ll_interrupts_share.o
    0x00003fd2   0x00003fd2   0x00000002   Code   RO         2762    i.SPI1_Idle_IrqHandler  hc32f460_ll_interrupts_share.o
    0x00003fd4   0x00003fd4   0x00000002   Code   RO         2763    i.SPI1_RxFull_IrqHandler  hc32f460_ll_interrupts_share.o
    0x00003fd6   0x00003fd6   0x00000002   Code   RO         2764    i.SPI1_TxEmpty_IrqHandler  hc32f460_ll_interrupts_share.o
    0x00003fd8   0x00003fd8   0x00000002   Code   RO         2765    i.SPI2_Error_IrqHandler  hc32f460_ll_interrupts_share.o
    0x00003fda   0x00003fda   0x00000002   Code   RO         2766    i.SPI2_Idle_IrqHandler  hc32f460_ll_interrupts_share.o
    0x00003fdc   0x00003fdc   0x00000002   Code   RO         2767    i.SPI2_RxFull_IrqHandler  hc32f460_ll_interrupts_share.o
    0x00003fde   0x00003fde   0x00000002   Code   RO         2768    i.SPI2_TxEmpty_IrqHandler  hc32f460_ll_interrupts_share.o
    0x00003fe0   0x00003fe0   0x00000002   Code   RO         2769    i.SPI3_Error_IrqHandler  hc32f460_ll_interrupts_share.o
    0x00003fe2   0x00003fe2   0x00000002   Code   RO         2770    i.SPI3_Idle_IrqHandler  hc32f460_ll_interrupts_share.o
    0x00003fe4   0x00003fe4   0x00000002   Code   RO         2771    i.SPI3_RxFull_IrqHandler  hc32f460_ll_interrupts_share.o
    0x00003fe6   0x00003fe6   0x00000002   Code   RO         2772    i.SPI3_TxEmpty_IrqHandler  hc32f460_ll_interrupts_share.o
    0x00003fe8   0x00003fe8   0x00000002   Code   RO         2773    i.SPI4_Error_IrqHandler  hc32f460_ll_interrupts_share.o
    0x00003fea   0x00003fea   0x00000002   Code   RO         2774    i.SPI4_Idle_IrqHandler  hc32f460_ll_interrupts_share.o
    0x00003fec   0x00003fec   0x00000002   Code   RO         2775    i.SPI4_RxFull_IrqHandler  hc32f460_ll_interrupts_share.o
    0x00003fee   0x00003fee   0x00000002   Code   RO         2776    i.SPI4_TxEmpty_IrqHandler  hc32f460_ll_interrupts_share.o
    0x00003ff0   0x00003ff0   0x000000a4   Code   RO         4316    i.SPI_Cmd           hc32_ll_spi.o
    0x00004094   0x00004094   0x00000014   Code   RO         4318    i.SPI_DelayStructInit  hc32_ll_spi.o
    0x000040a8   0x000040a8   0x000001d8   Code   RO         4319    i.SPI_DelayTimeConfig  hc32_ll_spi.o
    0x00004280   0x00004280   0x000002b0   Code   RO         4321    i.SPI_Init          hc32_ll_spi.o
    0x00004530   0x00004530   0x00000088   Code   RO         4323    i.SPI_ParityCheckCmd  hc32_ll_spi.o
    0x000045b8   0x000045b8   0x000000c4   Code   RO         4326    i.SPI_SSPinSelect   hc32_ll_spi.o
    0x0000467c   0x0000467c   0x00000084   Code   RO         4327    i.SPI_SetLoopbackMode  hc32_ll_spi.o
    0x00004700   0x00004700   0x000000b0   Code   RO         4329    i.SPI_SetSSValidLevel  hc32_ll_spi.o
    0x000047b0   0x000047b0   0x0000002e   Code   RO         4332    i.SPI_StructInit    hc32_ll_spi.o
    0x000047de   0x000047de   0x00000002   PAD
    0x000047e0   0x000047e0   0x000000d8   Code   RO          862    i.SRAM_SetWaitCycle  hc32_ll_sram.o
    0x000048b8   0x000048b8   0x00000002   Code   RO         2777    i.SWDT_IrqHandler   hc32f460_ll_interrupts_share.o
    0x000048ba   0x000048ba   0x00000002   PAD
    0x000048bc   0x000048bc   0x0000031c   Code   RO         1181    i.SetSysClockDiv    hc32_ll_clk.o
    0x00004bd8   0x00004bd8   0x000000f4   Code   RO         1182    i.SetSysClockSrc    hc32_ll_clk.o
    0x00004ccc   0x00004ccc   0x00000144   Code   RO          191    i.Speed_Decision_S  control_step.o
    0x00004e10   0x00004e10   0x000000f8   Code   RO          193    i.Stepper_Move_S    control_step.o
    0x00004f08   0x00004f08   0x0000000c   Code   RO          194    i.Stepper_start     control_step.o
    0x00004f14   0x00004f14   0x000000cc   Code   RO           13    i.SystemCoreClockUpdate  system_hc32f460.o
    0x00004fe0   0x00004fe0   0x00000014   Code   RO           14    i.SystemInit        system_hc32f460.o
    0x00004ff4   0x00004ff4   0x00000002   Code   RO         2778    i.TMR0_1_CmpA_IrqHandler  hc32f460_ll_interrupts_share.o
    0x00004ff6   0x00004ff6   0x00000002   Code   RO         2779    i.TMR0_1_CmpB_IrqHandler  hc32f460_ll_interrupts_share.o
    0x00004ff8   0x00004ff8   0x00000002   Code   RO         2780    i.TMR0_2_CmpA_IrqHandler  hc32f460_ll_interrupts_share.o
    0x00004ffa   0x00004ffa   0x00000002   Code   RO         2781    i.TMR0_2_CmpB_IrqHandler  hc32f460_ll_interrupts_share.o
    0x00004ffc   0x00004ffc   0x00000002   Code   RO         2782    i.TMR4_1_GCmpUH_IrqHandler  hc32f460_ll_interrupts_share.o
    0x00004ffe   0x00004ffe   0x00000002   Code   RO         2783    i.TMR4_1_GCmpUL_IrqHandler  hc32f460_ll_interrupts_share.o
    0x00005000   0x00005000   0x00000002   Code   RO         2784    i.TMR4_1_GCmpVH_IrqHandler  hc32f460_ll_interrupts_share.o
    0x00005002   0x00005002   0x00000002   Code   RO         2785    i.TMR4_1_GCmpVL_IrqHandler  hc32f460_ll_interrupts_share.o
    0x00005004   0x00005004   0x00000002   Code   RO         2786    i.TMR4_1_GCmpWH_IrqHandler  hc32f460_ll_interrupts_share.o
    0x00005006   0x00005006   0x00000002   Code   RO         2787    i.TMR4_1_GCmpWL_IrqHandler  hc32f460_ll_interrupts_share.o
    0x00005008   0x00005008   0x00000002   Code   RO         2788    i.TMR4_1_GOvf_IrqHandler  hc32f460_ll_interrupts_share.o
    0x0000500a   0x0000500a   0x00000002   Code   RO         2789    i.TMR4_1_GUdf_IrqHandler  hc32f460_ll_interrupts_share.o
    0x0000500c   0x0000500c   0x00000002   Code   RO         2790    i.TMR4_1_ReloadU_IrqHandler  hc32f460_ll_interrupts_share.o
    0x0000500e   0x0000500e   0x00000002   Code   RO         2791    i.TMR4_1_ReloadV_IrqHandler  hc32f460_ll_interrupts_share.o
    0x00005010   0x00005010   0x00000002   Code   RO         2792    i.TMR4_1_ReloadW_IrqHandler  hc32f460_ll_interrupts_share.o
    0x00005012   0x00005012   0x00000002   Code   RO         2793    i.TMR4_2_GCmpUH_IrqHandler  hc32f460_ll_interrupts_share.o
    0x00005014   0x00005014   0x00000002   Code   RO         2794    i.TMR4_2_GCmpUL_IrqHandler  hc32f460_ll_interrupts_share.o
    0x00005016   0x00005016   0x00000002   Code   RO         2795    i.TMR4_2_GCmpVH_IrqHandler  hc32f460_ll_interrupts_share.o
    0x00005018   0x00005018   0x00000002   Code   RO         2796    i.TMR4_2_GCmpVL_IrqHandler  hc32f460_ll_interrupts_share.o
    0x0000501a   0x0000501a   0x00000002   Code   RO         2797    i.TMR4_2_GCmpWH_IrqHandler  hc32f460_ll_interrupts_share.o
    0x0000501c   0x0000501c   0x00000002   Code   RO         2798    i.TMR4_2_GCmpWL_IrqHandler  hc32f460_ll_interrupts_share.o
    0x0000501e   0x0000501e   0x00000002   Code   RO         2799    i.TMR4_2_GOvf_IrqHandler  hc32f460_ll_interrupts_share.o
    0x00005020   0x00005020   0x00000002   Code   RO         2800    i.TMR4_2_GUdf_IrqHandler  hc32f460_ll_interrupts_share.o
    0x00005022   0x00005022   0x00000002   Code   RO         2801    i.TMR4_2_ReloadU_IrqHandler  hc32f460_ll_interrupts_share.o
    0x00005024   0x00005024   0x00000002   Code   RO         2802    i.TMR4_2_ReloadV_IrqHandler  hc32f460_ll_interrupts_share.o
    0x00005026   0x00005026   0x00000002   Code   RO         2803    i.TMR4_2_ReloadW_IrqHandler  hc32f460_ll_interrupts_share.o
    0x00005028   0x00005028   0x00000002   Code   RO         2804    i.TMR4_3_GCmpUH_IrqHandler  hc32f460_ll_interrupts_share.o
    0x0000502a   0x0000502a   0x00000002   Code   RO         2805    i.TMR4_3_GCmpUL_IrqHandler  hc32f460_ll_interrupts_share.o
    0x0000502c   0x0000502c   0x00000002   Code   RO         2806    i.TMR4_3_GCmpVH_IrqHandler  hc32f460_ll_interrupts_share.o
    0x0000502e   0x0000502e   0x00000002   Code   RO         2807    i.TMR4_3_GCmpVL_IrqHandler  hc32f460_ll_interrupts_share.o
    0x00005030   0x00005030   0x00000002   Code   RO         2808    i.TMR4_3_GCmpWH_IrqHandler  hc32f460_ll_interrupts_share.o
    0x00005032   0x00005032   0x00000002   Code   RO         2809    i.TMR4_3_GCmpWL_IrqHandler  hc32f460_ll_interrupts_share.o
    0x00005034   0x00005034   0x00000002   Code   RO         2810    i.TMR4_3_GOvf_IrqHandler  hc32f460_ll_interrupts_share.o
    0x00005036   0x00005036   0x00000002   Code   RO         2811    i.TMR4_3_GUdf_IrqHandler  hc32f460_ll_interrupts_share.o
    0x00005038   0x00005038   0x00000002   Code   RO         2812    i.TMR4_3_ReloadU_IrqHandler  hc32f460_ll_interrupts_share.o
    0x0000503a   0x0000503a   0x00000002   Code   RO         2813    i.TMR4_3_ReloadV_IrqHandler  hc32f460_ll_interrupts_share.o
    0x0000503c   0x0000503c   0x00000002   Code   RO         2814    i.TMR4_3_ReloadW_IrqHandler  hc32f460_ll_interrupts_share.o
    0x0000503e   0x0000503e   0x00000002   Code   RO         2815    i.TMR6_1_GCmpA_IrqHandler  hc32f460_ll_interrupts_share.o
    0x00005040   0x00005040   0x00000002   Code   RO         2816    i.TMR6_1_GCmpB_IrqHandler  hc32f460_ll_interrupts_share.o
    0x00005042   0x00005042   0x00000002   Code   RO         2817    i.TMR6_1_GCmpC_IrqHandler  hc32f460_ll_interrupts_share.o
    0x00005044   0x00005044   0x00000002   Code   RO         2818    i.TMR6_1_GCmpD_IrqHandler  hc32f460_ll_interrupts_share.o
    0x00005046   0x00005046   0x00000002   Code   RO         2819    i.TMR6_1_GCmpE_IrqHandler  hc32f460_ll_interrupts_share.o
    0x00005048   0x00005048   0x00000002   Code   RO         2820    i.TMR6_1_GCmpF_IrqHandler  hc32f460_ll_interrupts_share.o
    0x0000504a   0x0000504a   0x00000002   Code   RO         2821    i.TMR6_1_GDte_IrqHandler  hc32f460_ll_interrupts_share.o
    0x0000504c   0x0000504c   0x00000002   Code   RO         2822    i.TMR6_1_GOvf_IrqHandler  hc32f460_ll_interrupts_share.o
    0x0000504e   0x0000504e   0x00000002   Code   RO         2823    i.TMR6_1_GUdf_IrqHandler  hc32f460_ll_interrupts_share.o
    0x00005050   0x00005050   0x00000002   Code   RO         2824    i.TMR6_1_SCmpA_IrqHandler  hc32f460_ll_interrupts_share.o
    0x00005052   0x00005052   0x00000002   Code   RO         2825    i.TMR6_1_SCmpB_IrqHandler  hc32f460_ll_interrupts_share.o
    0x00005054   0x00005054   0x00000002   Code   RO         2826    i.TMR6_2_GCmpA_IrqHandler  hc32f460_ll_interrupts_share.o
    0x00005056   0x00005056   0x00000002   Code   RO         2827    i.TMR6_2_GCmpB_IrqHandler  hc32f460_ll_interrupts_share.o
    0x00005058   0x00005058   0x00000002   Code   RO         2828    i.TMR6_2_GCmpC_IrqHandler  hc32f460_ll_interrupts_share.o
    0x0000505a   0x0000505a   0x00000002   Code   RO         2829    i.TMR6_2_GCmpD_IrqHandler  hc32f460_ll_interrupts_share.o
    0x0000505c   0x0000505c   0x00000002   Code   RO         2830    i.TMR6_2_GCmpE_IrqHandler  hc32f460_ll_interrupts_share.o
    0x0000505e   0x0000505e   0x00000002   Code   RO         2831    i.TMR6_2_GCmpF_IrqHandler  hc32f460_ll_interrupts_share.o
    0x00005060   0x00005060   0x00000002   Code   RO         2832    i.TMR6_2_GDte_IrqHandler  hc32f460_ll_interrupts_share.o
    0x00005062   0x00005062   0x00000002   Code   RO         2833    i.TMR6_2_GOvf_IrqHandler  hc32f460_ll_interrupts_share.o
    0x00005064   0x00005064   0x00000002   Code   RO         2834    i.TMR6_2_GUdf_IrqHandler  hc32f460_ll_interrupts_share.o
    0x00005066   0x00005066   0x00000002   Code   RO         2835    i.TMR6_2_SCmpA_IrqHandler  hc32f460_ll_interrupts_share.o
    0x00005068   0x00005068   0x00000002   Code   RO         2836    i.TMR6_2_SCmpB_IrqHandler  hc32f460_ll_interrupts_share.o
    0x0000506a   0x0000506a   0x00000002   Code   RO         2837    i.TMR6_3_GCmpA_IrqHandler  hc32f460_ll_interrupts_share.o
    0x0000506c   0x0000506c   0x00000002   Code   RO         2838    i.TMR6_3_GCmpB_IrqHandler  hc32f460_ll_interrupts_share.o
    0x0000506e   0x0000506e   0x00000002   Code   RO         2839    i.TMR6_3_GCmpC_IrqHandler  hc32f460_ll_interrupts_share.o
    0x00005070   0x00005070   0x00000002   Code   RO         2840    i.TMR6_3_GCmpD_IrqHandler  hc32f460_ll_interrupts_share.o
    0x00005072   0x00005072   0x00000002   Code   RO         2841    i.TMR6_3_GCmpE_IrqHandler  hc32f460_ll_interrupts_share.o
    0x00005074   0x00005074   0x00000002   Code   RO         2842    i.TMR6_3_GCmpF_IrqHandler  hc32f460_ll_interrupts_share.o
    0x00005076   0x00005076   0x00000002   Code   RO         2843    i.TMR6_3_GDte_IrqHandler  hc32f460_ll_interrupts_share.o
    0x00005078   0x00005078   0x00000002   Code   RO         2844    i.TMR6_3_GOvf_IrqHandler  hc32f460_ll_interrupts_share.o
    0x0000507a   0x0000507a   0x00000002   Code   RO         2845    i.TMR6_3_GUdf_IrqHandler  hc32f460_ll_interrupts_share.o
    0x0000507c   0x0000507c   0x00000002   Code   RO         2846    i.TMR6_3_SCmpA_IrqHandler  hc32f460_ll_interrupts_share.o
    0x0000507e   0x0000507e   0x00000002   Code   RO         2847    i.TMR6_3_SCmpB_IrqHandler  hc32f460_ll_interrupts_share.o
    0x00005080   0x00005080   0x00000002   Code   RO         2848    i.TMRA_1_Cmp_IrqHandler  hc32f460_ll_interrupts_share.o
    0x00005082   0x00005082   0x00000002   Code   RO         2849    i.TMRA_1_Ovf_IrqHandler  hc32f460_ll_interrupts_share.o
    0x00005084   0x00005084   0x00000002   Code   RO         2850    i.TMRA_1_Udf_IrqHandler  hc32f460_ll_interrupts_share.o
    0x00005086   0x00005086   0x00000002   Code   RO         2851    i.TMRA_2_Cmp_IrqHandler  hc32f460_ll_interrupts_share.o
    0x00005088   0x00005088   0x00000002   Code   RO         2852    i.TMRA_2_Ovf_IrqHandler  hc32f460_ll_interrupts_share.o
    0x0000508a   0x0000508a   0x00000002   Code   RO         2853    i.TMRA_2_Udf_IrqHandler  hc32f460_ll_interrupts_share.o
    0x0000508c   0x0000508c   0x00000002   Code   RO         2854    i.TMRA_3_Cmp_IrqHandler  hc32f460_ll_interrupts_share.o
    0x0000508e   0x0000508e   0x00000002   Code   RO         2855    i.TMRA_3_Ovf_IrqHandler  hc32f460_ll_interrupts_share.o
    0x00005090   0x00005090   0x00000002   Code   RO         2856    i.TMRA_3_Udf_IrqHandler  hc32f460_ll_interrupts_share.o
    0x00005092   0x00005092   0x00000002   Code   RO         2857    i.TMRA_4_Cmp_IrqHandler  hc32f460_ll_interrupts_share.o
    0x00005094   0x00005094   0x00000002   Code   RO         2858    i.TMRA_4_Ovf_IrqHandler  hc32f460_ll_interrupts_share.o
    0x00005096   0x00005096   0x00000002   Code   RO         2859    i.TMRA_4_Udf_IrqHandler  hc32f460_ll_interrupts_share.o
    0x00005098   0x00005098   0x00000002   Code   RO         2860    i.TMRA_5_Cmp_IrqHandler  hc32f460_ll_interrupts_share.o
    0x0000509a   0x0000509a   0x00000002   Code   RO         2861    i.TMRA_5_Ovf_IrqHandler  hc32f460_ll_interrupts_share.o
    0x0000509c   0x0000509c   0x00000002   Code   RO         2862    i.TMRA_5_Udf_IrqHandler  hc32f460_ll_interrupts_share.o
    0x0000509e   0x0000509e   0x00000002   Code   RO         2863    i.TMRA_6_Cmp_IrqHandler  hc32f460_ll_interrupts_share.o
    0x000050a0   0x000050a0   0x00000002   Code   RO         2864    i.TMRA_6_Ovf_IrqHandler  hc32f460_ll_interrupts_share.o
    0x000050a2   0x000050a2   0x00000002   Code   RO         2865    i.TMRA_6_Udf_IrqHandler  hc32f460_ll_interrupts_share.o
    0x000050a4   0x000050a4   0x0000009c   Code   RO         4081    i.TMRA_ClearStatus  hc32_ll_tmra.o
    0x00005140   0x00005140   0x00000070   Code   RO         4088    i.TMRA_GetCountValue  hc32_ll_tmra.o
    0x000051b0   0x000051b0   0x00000190   Code   RO         4097    i.TMRA_Init         hc32_ll_tmra.o
    0x00005340   0x00005340   0x000000ec   Code   RO         4098    i.TMRA_IntCmd       hc32_ll_tmra.o
    0x0000542c   0x0000542c   0x0000014c   Code   RO         4099    i.TMRA_PWM_Init     hc32_ll_tmra.o
    0x00005578   0x00005578   0x000000a4   Code   RO         4100    i.TMRA_PWM_OutputCmd  hc32_ll_tmra.o
    0x0000561c   0x0000561c   0x0000001e   Code   RO         4103    i.TMRA_PWM_StructInit  hc32_ll_tmra.o
    0x0000563a   0x0000563a   0x00000002   PAD
    0x0000563c   0x0000563c   0x00000084   Code   RO         4106    i.TMRA_SetCompareValue  hc32_ll_tmra.o
    0x000056c0   0x000056c0   0x00000074   Code   RO         4109    i.TMRA_SetCountValue  hc32_ll_tmra.o
    0x00005734   0x00005734   0x000000a8   Code   RO         4111    i.TMRA_SetFunc      hc32_ll_tmra.o
    0x000057dc   0x000057dc   0x00000074   Code   RO         4112    i.TMRA_SetPeriodValue  hc32_ll_tmra.o
    0x00005850   0x00005850   0x0000007c   Code   RO         4113    i.TMRA_Start        hc32_ll_tmra.o
    0x000058cc   0x000058cc   0x00000024   Code   RO         4115    i.TMRA_StructInit   hc32_ll_tmra.o
    0x000058f0   0x000058f0   0x00000002   Code   RO         2866    i.USART1_RxError_IrqHandler  hc32f460_ll_interrupts_share.o
    0x000058f2   0x000058f2   0x00000002   Code   RO         2867    i.USART1_RxFull_IrqHandler  hc32f460_ll_interrupts_share.o
    0x000058f4   0x000058f4   0x00000002   Code   RO         2868    i.USART1_RxTO_IrqHandler  hc32f460_ll_interrupts_share.o
    0x000058f6   0x000058f6   0x00000002   Code   RO         2869    i.USART1_TxComplete_IrqHandler  hc32f460_ll_interrupts_share.o
    0x000058f8   0x000058f8   0x00000002   Code   RO         2870    i.USART1_TxEmpty_IrqHandler  hc32f460_ll_interrupts_share.o
    0x000058fa   0x000058fa   0x00000002   Code   RO         2871    i.USART2_RxError_IrqHandler  hc32f460_ll_interrupts_share.o
    0x000058fc   0x000058fc   0x00000002   Code   RO         2872    i.USART2_RxFull_IrqHandler  hc32f460_ll_interrupts_share.o
    0x000058fe   0x000058fe   0x00000002   Code   RO         2873    i.USART2_RxTO_IrqHandler  hc32f460_ll_interrupts_share.o
    0x00005900   0x00005900   0x00000002   Code   RO         2874    i.USART2_TxComplete_IrqHandler  hc32f460_ll_interrupts_share.o
    0x00005902   0x00005902   0x00000002   Code   RO         2875    i.USART2_TxEmpty_IrqHandler  hc32f460_ll_interrupts_share.o
    0x00005904   0x00005904   0x00000002   Code   RO         2876    i.USART3_RxError_IrqHandler  hc32f460_ll_interrupts_share.o
    0x00005906   0x00005906   0x00000002   Code   RO         2877    i.USART3_RxFull_IrqHandler  hc32f460_ll_interrupts_share.o
    0x00005908   0x00005908   0x00000002   Code   RO         2878    i.USART3_RxTO_IrqHandler  hc32f460_ll_interrupts_share.o
    0x0000590a   0x0000590a   0x00000002   Code   RO         2879    i.USART3_TxComplete_IrqHandler  hc32f460_ll_interrupts_share.o
    0x0000590c   0x0000590c   0x00000002   Code   RO         2880    i.USART3_TxEmpty_IrqHandler  hc32f460_ll_interrupts_share.o
    0x0000590e   0x0000590e   0x00000002   Code   RO         2881    i.USART4_RxError_IrqHandler  hc32f460_ll_interrupts_share.o
    0x00005910   0x00005910   0x00000002   Code   RO         2882    i.USART4_RxFull_IrqHandler  hc32f460_ll_interrupts_share.o
    0x00005912   0x00005912   0x00000002   Code   RO         2883    i.USART4_RxTO_IrqHandler  hc32f460_ll_interrupts_share.o
    0x00005914   0x00005914   0x00000002   Code   RO         2884    i.USART4_TxComplete_IrqHandler  hc32f460_ll_interrupts_share.o
    0x00005916   0x00005916   0x00000002   Code   RO         2885    i.USART4_TxEmpty_IrqHandler  hc32f460_ll_interrupts_share.o
    0x00005918   0x00005918   0x00000002   Code   RO         2886    i.USBFS_Global_IrqHandler  hc32f460_ll_interrupts_share.o
    0x0000591a   0x0000591a   0x00000002   Code   RO         2887    i.WDT_IrqHandler    hc32f460_ll_interrupts_share.o
    0x0000591c   0x0000591c   0x00000026   Code   RO         4597    i.__ARM_fpclassifyf  m_ws.l(fpclassifyf.o)
    0x00005942   0x00005942   0x00000002   PAD
    0x00005944   0x00005944   0x0000001c   Code   RO          280    i.__NVIC_ClearPendingIRQ  tim.o
    0x00005960   0x00005960   0x00000022   Code   RO          281    i.__NVIC_EnableIRQ  tim.o
    0x00005982   0x00005982   0x00000002   PAD
    0x00005984   0x00005984   0x00000028   Code   RO          282    i.__NVIC_SetPriority  tim.o
    0x000059ac   0x000059ac   0x00000006   Code   RO         4600    i.__mathlib_flt_infnan  m_ws.l(funder.o)
    0x000059b2   0x000059b2   0x0000000a   Code   RO         4603    i.__mathlib_flt_overflow  m_ws.l(funder.o)
    0x000059bc   0x000059bc   0x0000000a   Code   RO         4605    i.__mathlib_flt_underflow  m_ws.l(funder.o)
    0x000059c6   0x000059c6   0x0000000e   Code   RO         4680    i.__scatterload_copy  mc_w.l(handlers.o)
    0x000059d4   0x000059d4   0x00000002   Code   RO         4681    i.__scatterload_null  mc_w.l(handlers.o)
    0x000059d6   0x000059d6   0x0000000e   Code   RO         4682    i.__scatterload_zeroinit  mc_w.l(handlers.o)
    0x000059e4   0x000059e4   0x0000000c   Code   RO         4642    i.__set_errno       mc_w.l(errno.o)
    0x000059f0   0x000059f0   0x00000170   Code   RO         4535    i.expf              m_ws.l(expf.o)
    0x00005b60   0x00005b60   0x00000074   Code   RO           84    i.main              main.o
    0x00005bd4   0x00005bd4   0x00000030   Data   RO         4536    .constdata          m_ws.l(expf.o)
    0x00005c04   0x00005c04   0x00000020   Data   RO         4678    Region$$Table       anon$$obj.o


    Execution Region RW_IRAM1 (Exec base: 0x1fff8000, Load base: 0x00005c24, Size: 0x00015ad8, Max: 0x0002f000, ABSOLUTE)

    Exec Addr    Load Addr    Size         Type   Attr      Idx    E Section Name        Object

    0x1fff8000   0x00005c24   0x00000014   Data   RW          197    .data               control_step.o
    0x1fff8014   0x00005c38   0x0000000c   Data   RW          283    .data               tim.o
    0x1fff8020   0x00005c44   0x00000004   Data   RW         4643    .data               mc_w.l(errno.o)
    0x1fff8024        -       0x000138a8   Zero   RW          196    .bss                control_step.o
    0x2000b8cc        -       0x00000200   Zero   RW         1909    .bss                hc32_ll_interrupts.o
    0x2000bacc        -       0x00000008   Zero   RW           15    .bss.noinit         system_hc32f460.o
    0x2000bad4   0x00005c48   0x00000004   PAD
    0x2000bad8        -       0x00002000   Zero   RW            1    STACK               startup_hc32f460.o


==============================================================================

Image component sizes


      Code (inc. data)   RO Data    RW Data    ZI Data      Debug   Object Name

      1116         88          0         20      80040       5378   control_step.o
       332         64          0          0          0      19414   hc32_ll.o
      2648        304          0          0          0      16370   hc32_ll_clk.o
       168         42          0          0          0        627   hc32_ll_efm.o
       232         72          0          0          0       1170   hc32_ll_fcg.o
      1104        168          0          0          0       7073   hc32_ll_gpio.o
         0          0         32          0          0        546   hc32_ll_icg.o
      2768        616          0          0        512      59849   hc32_ll_interrupts.o
       100         32          0          0          0        505   hc32_ll_pwc.o
      2030        316          0          0          0       9981   hc32_ll_spi.o
       216         34          0          0          0        736   hc32_ll_sram.o
      2122        590          0          0          0      12613   hc32_ll_tmra.o
        68         12          0          0          0       1286   hc32_ll_utility.o
      7306        456          0          0          0     112525   hc32f460_ll_interrupts_share.o
       116         16          0          0          0     289571   main.o
       140          6          0          0          0        554   mp6602.o
       100         24        640          0       8192        792   startup_hc32f460.o
       224         42          0          0          8      10521   system_hc32f460.o
       736         66          0         12          0      34137   tim.o

    ----------------------------------------------------------------------
     21544       2948        704         32      88756     583648   Object Totals
         0          0         32          0          0          0   (incl. Generated)
        18          0          0          0          4          0   (incl. Padding)

    ----------------------------------------------------------------------

      Code (inc. data)   RO Data    RW Data    ZI Data      Debug   Library Member Name

       368         46         48          0          0        156   expf.o
        38          0          0          0          0         68   fpclassifyf.o
        26          0          0          0          0        204   funder.o
         0          0          0          0          0          0   entry.o
         0          0          0          0          0          0   entry10a.o
         0          0          0          0          0          0   entry11a.o
         8          4          0          0          0          0   entry2.o
         4          0          0          0          0          0   entry5.o
         0          0          0          0          0          0   entry7b.o
         0          0          0          0          0          0   entry8b.o
         8          4          0          0          0          0   entry9a.o
        12          6          0          4          0         68   errno.o
        30          0          0          0          0          0   handlers.o
        36          8          0          0          0         68   init.o
         0          0          0          0          0          0   iusefp.o
        36          0          0          0          0        108   memseta.o
        20          0          0          0          0         68   cfcmple.o
       176          0          0          0          0        140   fadd.o
       124          0          0          0          0         88   fdiv.o
       110          0          0          0          0        168   fepilogue.o
        50          0          0          0          0         68   ffixi.o
        40          0          0          0          0         68   ffixui.o
        18          0          0          0          0         68   fflti.o
       100          0          0          0          0         76   fmul.o
        60          0          0          0          0         76   frnd.o
        24          0          0          0          0         68   fscalb.o

    ----------------------------------------------------------------------
      1292         68         48          4          0       1560   Library Totals
         4          0          0          0          0          0   (incl. Padding)

    ----------------------------------------------------------------------

      Code (inc. data)   RO Data    RW Data    ZI Data      Debug   Library Name

       432         46         48          0          0        428   m_ws.l
       134         22          0          4          0        244   mc_w.l
       722          0          0          0          0        888   mf_w.l

    ----------------------------------------------------------------------
      1292         68         48          4          0       1560   Library Totals

    ----------------------------------------------------------------------

==============================================================================


      Code (inc. data)   RO Data    RW Data    ZI Data      Debug   

     22836       3016        752         36      88756     562220   Grand Totals
     22836       3016        752         36      88756     562220   ELF Image Totals
     22836       3016        752         36          0          0   ROM Totals

==============================================================================

    Total RO  Size (Code + RO Data)                23588 (  23.04kB)
    Total RW  Size (RW Data + ZI Data)             88792 (  86.71kB)
    Total ROM Size (Code + RO Data + RW Data)      23624 (  23.07kB)

==============================================================================

